
labrys.64:     file format elf64-x86-64


Disassembly of section .init:

0000000000403500 <_init>:
  403500:	48 83 ec 08          	sub    $0x8,%rsp
  403504:	48 8b 05 dd ca 24 00 	mov    0x24cadd(%rip),%rax        # 64ffe8 <__gmon_start__>
  40350b:	48 85 c0             	test   %rax,%rax
  40350e:	74 02                	je     403512 <_init+0x12>
  403510:	ff d0                	callq  *%rax
  403512:	48 83 c4 08          	add    $0x8,%rsp
  403516:	c3                   	retq   

Disassembly of section .plt:

0000000000403520 <.plt>:
  403520:	ff 35 e2 ca 24 00    	pushq  0x24cae2(%rip)        # 650008 <_GLOBAL_OFFSET_TABLE_+0x8>
  403526:	ff 25 e4 ca 24 00    	jmpq   *0x24cae4(%rip)        # 650010 <_GLOBAL_OFFSET_TABLE_+0x10>
  40352c:	0f 1f 40 00          	nopl   0x0(%rax)

0000000000403530 <glRasterPos2f@plt>:
  403530:	ff 25 e2 ca 24 00    	jmpq   *0x24cae2(%rip)        # 650018 <glRasterPos2f>
  403536:	68 00 00 00 00       	pushq  $0x0
  40353b:	e9 e0 ff ff ff       	jmpq   403520 <.plt>

0000000000403540 <glCreateProgramObjectARB@plt>:
  403540:	ff 25 da ca 24 00    	jmpq   *0x24cada(%rip)        # 650020 <glCreateProgramObjectARB>
  403546:	68 01 00 00 00       	pushq  $0x1
  40354b:	e9 d0 ff ff ff       	jmpq   403520 <.plt>

0000000000403550 <printf@plt>:
  403550:	ff 25 d2 ca 24 00    	jmpq   *0x24cad2(%rip)        # 650028 <printf@GLIBC_2.2.5>
  403556:	68 02 00 00 00       	pushq  $0x2
  40355b:	e9 c0 ff ff ff       	jmpq   403520 <.plt>

0000000000403560 <glGetObjectParameterivARB@plt>:
  403560:	ff 25 ca ca 24 00    	jmpq   *0x24caca(%rip)        # 650030 <glGetObjectParameterivARB>
  403566:	68 03 00 00 00       	pushq  $0x3
  40356b:	e9 b0 ff ff ff       	jmpq   403520 <.plt>

0000000000403570 <isspace@plt>:
  403570:	ff 25 c2 ca 24 00    	jmpq   *0x24cac2(%rip)        # 650038 <isspace@GLIBC_2.2.5>
  403576:	68 04 00 00 00       	pushq  $0x4
  40357b:	e9 a0 ff ff ff       	jmpq   403520 <.plt>

0000000000403580 <glUseProgramObjectARB@plt>:
  403580:	ff 25 ba ca 24 00    	jmpq   *0x24caba(%rip)        # 650040 <glUseProgramObjectARB>
  403586:	68 05 00 00 00       	pushq  $0x5
  40358b:	e9 90 ff ff ff       	jmpq   403520 <.plt>

0000000000403590 <glCreateShaderObjectARB@plt>:
  403590:	ff 25 b2 ca 24 00    	jmpq   *0x24cab2(%rip)        # 650048 <glCreateShaderObjectARB>
  403596:	68 06 00 00 00       	pushq  $0x6
  40359b:	e9 80 ff ff ff       	jmpq   403520 <.plt>

00000000004035a0 <_ZSt29_Rb_tree_insert_and_rebalancebPSt18_Rb_tree_node_baseS0_RS_@plt>:
  4035a0:	ff 25 aa ca 24 00    	jmpq   *0x24caaa(%rip)        # 650050 <_ZSt29_Rb_tree_insert_and_rebalancebPSt18_Rb_tree_node_baseS0_RS_@GLIBCXX_3.4>
  4035a6:	68 07 00 00 00       	pushq  $0x7
  4035ab:	e9 70 ff ff ff       	jmpq   403520 <.plt>

00000000004035b0 <sprintf@plt>:
  4035b0:	ff 25 a2 ca 24 00    	jmpq   *0x24caa2(%rip)        # 650058 <sprintf@GLIBC_2.2.5>
  4035b6:	68 08 00 00 00       	pushq  $0x8
  4035bb:	e9 60 ff ff ff       	jmpq   403520 <.plt>

00000000004035c0 <glColorMask@plt>:
  4035c0:	ff 25 9a ca 24 00    	jmpq   *0x24ca9a(%rip)        # 650060 <glColorMask>
  4035c6:	68 09 00 00 00       	pushq  $0x9
  4035cb:	e9 50 ff ff ff       	jmpq   403520 <.plt>

00000000004035d0 <glBegin@plt>:
  4035d0:	ff 25 92 ca 24 00    	jmpq   *0x24ca92(%rip)        # 650068 <glBegin>
  4035d6:	68 0a 00 00 00       	pushq  $0xa
  4035db:	e9 40 ff ff ff       	jmpq   403520 <.plt>

00000000004035e0 <Mix_CloseAudio@plt>:
  4035e0:	ff 25 8a ca 24 00    	jmpq   *0x24ca8a(%rip)        # 650070 <Mix_CloseAudio>
  4035e6:	68 0b 00 00 00       	pushq  $0xb
  4035eb:	e9 30 ff ff ff       	jmpq   403520 <.plt>

00000000004035f0 <glClear@plt>:
  4035f0:	ff 25 82 ca 24 00    	jmpq   *0x24ca82(%rip)        # 650078 <glClear>
  4035f6:	68 0c 00 00 00       	pushq  $0xc
  4035fb:	e9 20 ff ff ff       	jmpq   403520 <.plt>

0000000000403600 <glDisable@plt>:
  403600:	ff 25 7a ca 24 00    	jmpq   *0x24ca7a(%rip)        # 650080 <glDisable>
  403606:	68 0d 00 00 00       	pushq  $0xd
  40360b:	e9 10 ff ff ff       	jmpq   403520 <.plt>

0000000000403610 <glViewport@plt>:
  403610:	ff 25 72 ca 24 00    	jmpq   *0x24ca72(%rip)        # 650088 <glViewport>
  403616:	68 0e 00 00 00       	pushq  $0xe
  40361b:	e9 00 ff ff ff       	jmpq   403520 <.plt>

0000000000403620 <gluQuadricOrientation@plt>:
  403620:	ff 25 6a ca 24 00    	jmpq   *0x24ca6a(%rip)        # 650090 <gluQuadricOrientation>
  403626:	68 0f 00 00 00       	pushq  $0xf
  40362b:	e9 f0 fe ff ff       	jmpq   403520 <.plt>

0000000000403630 <glGetUniformLocationARB@plt>:
  403630:	ff 25 62 ca 24 00    	jmpq   *0x24ca62(%rip)        # 650098 <glGetUniformLocationARB>
  403636:	68 10 00 00 00       	pushq  $0x10
  40363b:	e9 e0 fe ff ff       	jmpq   403520 <.plt>

0000000000403640 <_ZNKSt7__cxx1112basic_stringIcSt11char_traitsIcESaIcEE7compareEPKc@plt>:
  403640:	ff 25 5a ca 24 00    	jmpq   *0x24ca5a(%rip)        # 6500a0 <_ZNKSt7__cxx1112basic_stringIcSt11char_traitsIcESaIcEE7compareEPKc@GLIBCXX_3.4.21>
  403646:	68 11 00 00 00       	pushq  $0x11
  40364b:	e9 d0 fe ff ff       	jmpq   403520 <.plt>

0000000000403650 <Mix_PlayChannelTimed@plt>:
  403650:	ff 25 52 ca 24 00    	jmpq   *0x24ca52(%rip)        # 6500a8 <Mix_PlayChannelTimed>
  403656:	68 12 00 00 00       	pushq  $0x12
  40365b:	e9 c0 fe ff ff       	jmpq   403520 <.plt>

0000000000403660 <glFogf@plt>:
  403660:	ff 25 4a ca 24 00    	jmpq   *0x24ca4a(%rip)        # 6500b0 <glFogf>
  403666:	68 13 00 00 00       	pushq  $0x13
  40366b:	e9 b0 fe ff ff       	jmpq   403520 <.plt>

0000000000403670 <_ZSt17__throw_bad_allocv@plt>:
  403670:	ff 25 42 ca 24 00    	jmpq   *0x24ca42(%rip)        # 6500b8 <_ZSt17__throw_bad_allocv@GLIBCXX_3.4>
  403676:	68 14 00 00 00       	pushq  $0x14
  40367b:	e9 a0 fe ff ff       	jmpq   403520 <.plt>

0000000000403680 <strchr@plt>:
  403680:	ff 25 3a ca 24 00    	jmpq   *0x24ca3a(%rip)        # 6500c0 <strchr@GLIBC_2.2.5>
  403686:	68 15 00 00 00       	pushq  $0x15
  40368b:	e9 90 fe ff ff       	jmpq   403520 <.plt>

0000000000403690 <glTexImage2D@plt>:
  403690:	ff 25 32 ca 24 00    	jmpq   *0x24ca32(%rip)        # 6500c8 <glTexImage2D>
  403696:	68 16 00 00 00       	pushq  $0x16
  40369b:	e9 80 fe ff ff       	jmpq   403520 <.plt>

00000000004036a0 <__cxa_begin_catch@plt>:
  4036a0:	ff 25 2a ca 24 00    	jmpq   *0x24ca2a(%rip)        # 6500d0 <__cxa_begin_catch@CXXABI_1.3>
  4036a6:	68 17 00 00 00       	pushq  $0x17
  4036ab:	e9 70 fe ff ff       	jmpq   403520 <.plt>

00000000004036b0 <_ZNKSt7__cxx1112basic_stringIcSt11char_traitsIcESaIcEE5c_strEv@plt>:
  4036b0:	ff 25 22 ca 24 00    	jmpq   *0x24ca22(%rip)        # 6500d8 <_ZNKSt7__cxx1112basic_stringIcSt11char_traitsIcESaIcEE5c_strEv@GLIBCXX_3.4.21>
  4036b6:	68 18 00 00 00       	pushq  $0x18
  4036bb:	e9 60 fe ff ff       	jmpq   403520 <.plt>

00000000004036c0 <SDL_RWFromFile@plt>:
  4036c0:	ff 25 1a ca 24 00    	jmpq   *0x24ca1a(%rip)        # 6500e0 <SDL_RWFromFile>
  4036c6:	68 19 00 00 00       	pushq  $0x19
  4036cb:	e9 50 fe ff ff       	jmpq   403520 <.plt>

00000000004036d0 <glDeleteProgram@plt>:
  4036d0:	ff 25 12 ca 24 00    	jmpq   *0x24ca12(%rip)        # 6500e8 <glDeleteProgram>
  4036d6:	68 1a 00 00 00       	pushq  $0x1a
  4036db:	e9 40 fe ff ff       	jmpq   403520 <.plt>

00000000004036e0 <_ZNSt7__cxx1112basic_stringIcSt11char_traitsIcESaIcEEC1ERKS4_@plt>:
  4036e0:	ff 25 0a ca 24 00    	jmpq   *0x24ca0a(%rip)        # 6500f0 <_ZNSt7__cxx1112basic_stringIcSt11char_traitsIcESaIcEEC1ERKS4_@GLIBCXX_3.4.21>
  4036e6:	68 1b 00 00 00       	pushq  $0x1b
  4036eb:	e9 30 fe ff ff       	jmpq   403520 <.plt>

00000000004036f0 <strlen@plt>:
  4036f0:	ff 25 02 ca 24 00    	jmpq   *0x24ca02(%rip)        # 6500f8 <strlen@GLIBC_2.2.5>
  4036f6:	68 1c 00 00 00       	pushq  $0x1c
  4036fb:	e9 20 fe ff ff       	jmpq   403520 <.plt>

0000000000403700 <Mix_FreeChunk@plt>:
  403700:	ff 25 fa c9 24 00    	jmpq   *0x24c9fa(%rip)        # 650100 <Mix_FreeChunk>
  403706:	68 1d 00 00 00       	pushq  $0x1d
  40370b:	e9 10 fe ff ff       	jmpq   403520 <.plt>

0000000000403710 <glReadPixels@plt>:
  403710:	ff 25 f2 c9 24 00    	jmpq   *0x24c9f2(%rip)        # 650108 <glReadPixels>
  403716:	68 1e 00 00 00       	pushq  $0x1e
  40371b:	e9 00 fe ff ff       	jmpq   403520 <.plt>

0000000000403720 <strncmp@plt>:
  403720:	ff 25 ea c9 24 00    	jmpq   *0x24c9ea(%rip)        # 650110 <strncmp@GLIBC_2.2.5>
  403726:	68 1f 00 00 00       	pushq  $0x1f
  40372b:	e9 f0 fd ff ff       	jmpq   403520 <.plt>

0000000000403730 <gluSphere@plt>:
  403730:	ff 25 e2 c9 24 00    	jmpq   *0x24c9e2(%rip)        # 650118 <gluSphere>
  403736:	68 20 00 00 00       	pushq  $0x20
  40373b:	e9 e0 fd ff ff       	jmpq   403520 <.plt>

0000000000403740 <glTexCoord2f@plt>:
  403740:	ff 25 da c9 24 00    	jmpq   *0x24c9da(%rip)        # 650120 <glTexCoord2f>
  403746:	68 21 00 00 00       	pushq  $0x21
  40374b:	e9 d0 fd ff ff       	jmpq   403520 <.plt>

0000000000403750 <glGetError@plt>:
  403750:	ff 25 d2 c9 24 00    	jmpq   *0x24c9d2(%rip)        # 650128 <glGetError>
  403756:	68 22 00 00 00       	pushq  $0x22
  40375b:	e9 c0 fd ff ff       	jmpq   403520 <.plt>

0000000000403760 <_ZSt20__throw_length_errorPKc@plt>:
  403760:	ff 25 ca c9 24 00    	jmpq   *0x24c9ca(%rip)        # 650130 <_ZSt20__throw_length_errorPKc@GLIBCXX_3.4>
  403766:	68 23 00 00 00       	pushq  $0x23
  40376b:	e9 b0 fd ff ff       	jmpq   403520 <.plt>

0000000000403770 <abort@plt>:
  403770:	ff 25 c2 c9 24 00    	jmpq   *0x24c9c2(%rip)        # 650138 <abort@GLIBC_2.2.5>
  403776:	68 24 00 00 00       	pushq  $0x24
  40377b:	e9 a0 fd ff ff       	jmpq   403520 <.plt>

0000000000403780 <gluBuild2DMipmaps@plt>:
  403780:	ff 25 ba c9 24 00    	jmpq   *0x24c9ba(%rip)        # 650140 <gluBuild2DMipmaps>
  403786:	68 25 00 00 00       	pushq  $0x25
  40378b:	e9 90 fd ff ff       	jmpq   403520 <.plt>

0000000000403790 <glutBitmapCharacter@plt>:
  403790:	ff 25 b2 c9 24 00    	jmpq   *0x24c9b2(%rip)        # 650148 <glutBitmapCharacter>
  403796:	68 26 00 00 00       	pushq  $0x26
  40379b:	e9 80 fd ff ff       	jmpq   403520 <.plt>

00000000004037a0 <_ZNSt7__cxx1112basic_stringIcSt11char_traitsIcESaIcEEC1EOS4_@plt>:
  4037a0:	ff 25 aa c9 24 00    	jmpq   *0x24c9aa(%rip)        # 650150 <_ZNSt7__cxx1112basic_stringIcSt11char_traitsIcESaIcEEC1EOS4_@GLIBCXX_3.4.21>
  4037a6:	68 27 00 00 00       	pushq  $0x27
  4037ab:	e9 70 fd ff ff       	jmpq   403520 <.plt>

00000000004037b0 <glDepthMask@plt>:
  4037b0:	ff 25 a2 c9 24 00    	jmpq   *0x24c9a2(%rip)        # 650158 <glDepthMask>
  4037b6:	68 28 00 00 00       	pushq  $0x28
  4037bb:	e9 60 fd ff ff       	jmpq   403520 <.plt>

00000000004037c0 <_ZSt28_Rb_tree_rebalance_for_erasePSt18_Rb_tree_node_baseRS_@plt>:
  4037c0:	ff 25 9a c9 24 00    	jmpq   *0x24c99a(%rip)        # 650160 <_ZSt28_Rb_tree_rebalance_for_erasePSt18_Rb_tree_node_baseRS_@GLIBCXX_3.4>
  4037c6:	68 29 00 00 00       	pushq  $0x29
  4037cb:	e9 50 fd ff ff       	jmpq   403520 <.plt>

00000000004037d0 <SDL_PollEvent@plt>:
  4037d0:	ff 25 92 c9 24 00    	jmpq   *0x24c992(%rip)        # 650168 <SDL_PollEvent>
  4037d6:	68 2a 00 00 00       	pushq  $0x2a
  4037db:	e9 40 fd ff ff       	jmpq   403520 <.plt>

00000000004037e0 <glutInitDisplayMode@plt>:
  4037e0:	ff 25 8a c9 24 00    	jmpq   *0x24c98a(%rip)        # 650170 <glutInitDisplayMode>
  4037e6:	68 2b 00 00 00       	pushq  $0x2b
  4037eb:	e9 30 fd ff ff       	jmpq   403520 <.plt>

00000000004037f0 <glDepthFunc@plt>:
  4037f0:	ff 25 82 c9 24 00    	jmpq   *0x24c982(%rip)        # 650178 <glDepthFunc>
  4037f6:	68 2c 00 00 00       	pushq  $0x2c
  4037fb:	e9 20 fd ff ff       	jmpq   403520 <.plt>

0000000000403800 <__assert_fail@plt>:
  403800:	ff 25 7a c9 24 00    	jmpq   *0x24c97a(%rip)        # 650180 <__assert_fail@GLIBC_2.2.5>
  403806:	68 2d 00 00 00       	pushq  $0x2d
  40380b:	e9 10 fd ff ff       	jmpq   403520 <.plt>

0000000000403810 <glGetInfoLogARB@plt>:
  403810:	ff 25 72 c9 24 00    	jmpq   *0x24c972(%rip)        # 650188 <glGetInfoLogARB>
  403816:	68 2e 00 00 00       	pushq  $0x2e
  40381b:	e9 00 fd ff ff       	jmpq   403520 <.plt>

0000000000403820 <glVertex3fv@plt>:
  403820:	ff 25 6a c9 24 00    	jmpq   *0x24c96a(%rip)        # 650190 <glVertex3fv>
  403826:	68 2f 00 00 00       	pushq  $0x2f
  40382b:	e9 f0 fc ff ff       	jmpq   403520 <.plt>

0000000000403830 <Mix_OpenAudio@plt>:
  403830:	ff 25 62 c9 24 00    	jmpq   *0x24c962(%rip)        # 650198 <Mix_OpenAudio>
  403836:	68 30 00 00 00       	pushq  $0x30
  40383b:	e9 e0 fc ff ff       	jmpq   403520 <.plt>

0000000000403840 <_ZSt18_Rb_tree_incrementPSt18_Rb_tree_node_base@plt>:
  403840:	ff 25 5a c9 24 00    	jmpq   *0x24c95a(%rip)        # 6501a0 <_ZSt18_Rb_tree_incrementPSt18_Rb_tree_node_base@GLIBCXX_3.4>
  403846:	68 31 00 00 00       	pushq  $0x31
  40384b:	e9 d0 fc ff ff       	jmpq   403520 <.plt>

0000000000403850 <sscanf@plt>:
  403850:	ff 25 52 c9 24 00    	jmpq   *0x24c952(%rip)        # 6501a8 <sscanf@GLIBC_2.2.5>
  403856:	68 32 00 00 00       	pushq  $0x32
  40385b:	e9 c0 fc ff ff       	jmpq   403520 <.plt>

0000000000403860 <SDL_Delay@plt>:
  403860:	ff 25 4a c9 24 00    	jmpq   *0x24c94a(%rip)        # 6501b0 <SDL_Delay>
  403866:	68 33 00 00 00       	pushq  $0x33
  40386b:	e9 b0 fc ff ff       	jmpq   403520 <.plt>

0000000000403870 <SDL_GetError@plt>:
  403870:	ff 25 42 c9 24 00    	jmpq   *0x24c942(%rip)        # 6501b8 <SDL_GetError>
  403876:	68 34 00 00 00       	pushq  $0x34
  40387b:	e9 a0 fc ff ff       	jmpq   403520 <.plt>

0000000000403880 <_ZNSt7__cxx1118basic_stringstreamIcSt11char_traitsIcESaIcEED1Ev@plt>:
  403880:	ff 25 3a c9 24 00    	jmpq   *0x24c93a(%rip)        # 6501c0 <_ZNSt7__cxx1118basic_stringstreamIcSt11char_traitsIcESaIcEED1Ev@GLIBCXX_3.4.21>
  403886:	68 35 00 00 00       	pushq  $0x35
  40388b:	e9 90 fc ff ff       	jmpq   403520 <.plt>

0000000000403890 <_ZNSt7__cxx1118basic_stringstreamIcSt11char_traitsIcESaIcEEC1ESt13_Ios_Openmode@plt>:
  403890:	ff 25 32 c9 24 00    	jmpq   *0x24c932(%rip)        # 6501c8 <_ZNSt7__cxx1118basic_stringstreamIcSt11char_traitsIcESaIcEEC1ESt13_Ios_Openmode@GLIBCXX_3.4.21>
  403896:	68 36 00 00 00       	pushq  $0x36
  40389b:	e9 80 fc ff ff       	jmpq   403520 <.plt>

00000000004038a0 <glVertex3i@plt>:
  4038a0:	ff 25 2a c9 24 00    	jmpq   *0x24c92a(%rip)        # 6501d0 <glVertex3i>
  4038a6:	68 37 00 00 00       	pushq  $0x37
  4038ab:	e9 70 fc ff ff       	jmpq   403520 <.plt>

00000000004038b0 <glBlendFunc@plt>:
  4038b0:	ff 25 22 c9 24 00    	jmpq   *0x24c922(%rip)        # 6501d8 <glBlendFunc>
  4038b6:	68 38 00 00 00       	pushq  $0x38
  4038bb:	e9 60 fc ff ff       	jmpq   403520 <.plt>

00000000004038c0 <Mix_VolumeMusic@plt>:
  4038c0:	ff 25 1a c9 24 00    	jmpq   *0x24c91a(%rip)        # 6501e0 <Mix_VolumeMusic>
  4038c6:	68 39 00 00 00       	pushq  $0x39
  4038cb:	e9 50 fc ff ff       	jmpq   403520 <.plt>

00000000004038d0 <Mix_LoadMUS@plt>:
  4038d0:	ff 25 12 c9 24 00    	jmpq   *0x24c912(%rip)        # 6501e8 <Mix_LoadMUS>
  4038d6:	68 3a 00 00 00       	pushq  $0x3a
  4038db:	e9 40 fc ff ff       	jmpq   403520 <.plt>

00000000004038e0 <glNormal3f@plt>:
  4038e0:	ff 25 0a c9 24 00    	jmpq   *0x24c90a(%rip)        # 6501f0 <glNormal3f>
  4038e6:	68 3b 00 00 00       	pushq  $0x3b
  4038eb:	e9 30 fc ff ff       	jmpq   403520 <.plt>

00000000004038f0 <glutBitmapWidth@plt>:
  4038f0:	ff 25 02 c9 24 00    	jmpq   *0x24c902(%rip)        # 6501f8 <glutBitmapWidth>
  4038f6:	68 3c 00 00 00       	pushq  $0x3c
  4038fb:	e9 20 fc ff ff       	jmpq   403520 <.plt>

0000000000403900 <glColor4f@plt>:
  403900:	ff 25 fa c8 24 00    	jmpq   *0x24c8fa(%rip)        # 650200 <glColor4f>
  403906:	68 3d 00 00 00       	pushq  $0x3d
  40390b:	e9 10 fc ff ff       	jmpq   403520 <.plt>

0000000000403910 <SDL_Init@plt>:
  403910:	ff 25 f2 c8 24 00    	jmpq   *0x24c8f2(%rip)        # 650208 <SDL_Init>
  403916:	68 3e 00 00 00       	pushq  $0x3e
  40391b:	e9 00 fc ff ff       	jmpq   403520 <.plt>

0000000000403920 <Mix_FreeMusic@plt>:
  403920:	ff 25 ea c8 24 00    	jmpq   *0x24c8ea(%rip)        # 650210 <Mix_FreeMusic>
  403926:	68 3f 00 00 00       	pushq  $0x3f
  40392b:	e9 f0 fb ff ff       	jmpq   403520 <.plt>

0000000000403930 <SDL_InitSubSystem@plt>:
  403930:	ff 25 e2 c8 24 00    	jmpq   *0x24c8e2(%rip)        # 650218 <SDL_InitSubSystem>
  403936:	68 40 00 00 00       	pushq  $0x40
  40393b:	e9 e0 fb ff ff       	jmpq   403520 <.plt>

0000000000403940 <time@plt>:
  403940:	ff 25 da c8 24 00    	jmpq   *0x24c8da(%rip)        # 650220 <time@GLIBC_2.2.5>
  403946:	68 41 00 00 00       	pushq  $0x41
  40394b:	e9 d0 fb ff ff       	jmpq   403520 <.plt>

0000000000403950 <gluDeleteQuadric@plt>:
  403950:	ff 25 d2 c8 24 00    	jmpq   *0x24c8d2(%rip)        # 650228 <gluDeleteQuadric>
  403956:	68 42 00 00 00       	pushq  $0x42
  40395b:	e9 c0 fb ff ff       	jmpq   403520 <.plt>

0000000000403960 <SDL_FreeSurface@plt>:
  403960:	ff 25 ca c8 24 00    	jmpq   *0x24c8ca(%rip)        # 650230 <SDL_FreeSurface>
  403966:	68 43 00 00 00       	pushq  $0x43
  40396b:	e9 b0 fb ff ff       	jmpq   403520 <.plt>

0000000000403970 <SDL_SetVideoMode@plt>:
  403970:	ff 25 c2 c8 24 00    	jmpq   *0x24c8c2(%rip)        # 650238 <SDL_SetVideoMode>
  403976:	68 44 00 00 00       	pushq  $0x44
  40397b:	e9 a0 fb ff ff       	jmpq   403520 <.plt>

0000000000403980 <strcpy@plt>:
  403980:	ff 25 ba c8 24 00    	jmpq   *0x24c8ba(%rip)        # 650240 <strcpy@GLIBC_2.2.5>
  403986:	68 45 00 00 00       	pushq  $0x45
  40398b:	e9 90 fb ff ff       	jmpq   403520 <.plt>

0000000000403990 <glEnable@plt>:
  403990:	ff 25 b2 c8 24 00    	jmpq   *0x24c8b2(%rip)        # 650248 <glEnable>
  403996:	68 46 00 00 00       	pushq  $0x46
  40399b:	e9 80 fb ff ff       	jmpq   403520 <.plt>

00000000004039a0 <_ZdlPv@plt>:
  4039a0:	ff 25 aa c8 24 00    	jmpq   *0x24c8aa(%rip)        # 650250 <_ZdlPv@GLIBCXX_3.4>
  4039a6:	68 47 00 00 00       	pushq  $0x47
  4039ab:	e9 70 fb ff ff       	jmpq   403520 <.plt>

00000000004039b0 <SDL_WM_SetCaption@plt>:
  4039b0:	ff 25 a2 c8 24 00    	jmpq   *0x24c8a2(%rip)        # 650258 <SDL_WM_SetCaption>
  4039b6:	68 48 00 00 00       	pushq  $0x48
  4039bb:	e9 60 fb ff ff       	jmpq   403520 <.plt>

00000000004039c0 <glGetIntegerv@plt>:
  4039c0:	ff 25 9a c8 24 00    	jmpq   *0x24c89a(%rip)        # 650260 <glGetIntegerv>
  4039c6:	68 49 00 00 00       	pushq  $0x49
  4039cb:	e9 50 fb ff ff       	jmpq   403520 <.plt>

00000000004039d0 <glColor3ub@plt>:
  4039d0:	ff 25 92 c8 24 00    	jmpq   *0x24c892(%rip)        # 650268 <glColor3ub>
  4039d6:	68 4a 00 00 00       	pushq  $0x4a
  4039db:	e9 40 fb ff ff       	jmpq   403520 <.plt>

00000000004039e0 <glHint@plt>:
  4039e0:	ff 25 8a c8 24 00    	jmpq   *0x24c88a(%rip)        # 650270 <glHint>
  4039e6:	68 4b 00 00 00       	pushq  $0x4b
  4039eb:	e9 30 fb ff ff       	jmpq   403520 <.plt>

00000000004039f0 <_ZNKSt7__cxx1118basic_stringstreamIcSt11char_traitsIcESaIcEE3strEv@plt>:
  4039f0:	ff 25 82 c8 24 00    	jmpq   *0x24c882(%rip)        # 650278 <_ZNKSt7__cxx1118basic_stringstreamIcSt11char_traitsIcESaIcEE3strEv@GLIBCXX_3.4.21>
  4039f6:	68 4c 00 00 00       	pushq  $0x4c
  4039fb:	e9 20 fb ff ff       	jmpq   403520 <.plt>

0000000000403a00 <glFogi@plt>:
  403a00:	ff 25 7a c8 24 00    	jmpq   *0x24c87a(%rip)        # 650280 <glFogi>
  403a06:	68 4d 00 00 00       	pushq  $0x4d
  403a0b:	e9 10 fb ff ff       	jmpq   403520 <.plt>

0000000000403a10 <glMaterialf@plt>:
  403a10:	ff 25 72 c8 24 00    	jmpq   *0x24c872(%rip)        # 650288 <glMaterialf>
  403a16:	68 4e 00 00 00       	pushq  $0x4e
  403a1b:	e9 00 fb ff ff       	jmpq   403520 <.plt>

0000000000403a20 <_ZStlsISt11char_traitsIcEERSt13basic_ostreamIcT_ES5_PKc@plt>:
  403a20:	ff 25 6a c8 24 00    	jmpq   *0x24c86a(%rip)        # 650290 <_ZStlsISt11char_traitsIcEERSt13basic_ostreamIcT_ES5_PKc@GLIBCXX_3.4>
  403a26:	68 4f 00 00 00       	pushq  $0x4f
  403a2b:	e9 f0 fa ff ff       	jmpq   403520 <.plt>

0000000000403a30 <fclose@plt>:
  403a30:	ff 25 62 c8 24 00    	jmpq   *0x24c862(%rip)        # 650298 <fclose@GLIBC_2.2.5>
  403a36:	68 50 00 00 00       	pushq  $0x50
  403a3b:	e9 e0 fa ff ff       	jmpq   403520 <.plt>

0000000000403a40 <_Znwm@plt>:
  403a40:	ff 25 5a c8 24 00    	jmpq   *0x24c85a(%rip)        # 6502a0 <_Znwm@GLIBCXX_3.4>
  403a46:	68 51 00 00 00       	pushq  $0x51
  403a4b:	e9 d0 fa ff ff       	jmpq   403520 <.plt>

0000000000403a50 <_ZdlPvm@plt>:
  403a50:	ff 25 52 c8 24 00    	jmpq   *0x24c852(%rip)        # 6502a8 <_ZdlPvm@CXXABI_1.3.9>
  403a56:	68 52 00 00 00       	pushq  $0x52
  403a5b:	e9 c0 fa ff ff       	jmpq   403520 <.plt>

0000000000403a60 <glStencilFunc@plt>:
  403a60:	ff 25 4a c8 24 00    	jmpq   *0x24c84a(%rip)        # 6502b0 <glStencilFunc>
  403a66:	68 53 00 00 00       	pushq  $0x53
  403a6b:	e9 b0 fa ff ff       	jmpq   403520 <.plt>

0000000000403a70 <SDL_GetTicks@plt>:
  403a70:	ff 25 42 c8 24 00    	jmpq   *0x24c842(%rip)        # 6502b8 <SDL_GetTicks>
  403a76:	68 54 00 00 00       	pushq  $0x54
  403a7b:	e9 a0 fa ff ff       	jmpq   403520 <.plt>

0000000000403a80 <_ZNKSt7__cxx1112basic_stringIcSt11char_traitsIcESaIcEE6substrEmm@plt>:
  403a80:	ff 25 3a c8 24 00    	jmpq   *0x24c83a(%rip)        # 6502c0 <_ZNKSt7__cxx1112basic_stringIcSt11char_traitsIcESaIcEE6substrEmm@GLIBCXX_3.4.21>
  403a86:	68 55 00 00 00       	pushq  $0x55
  403a8b:	e9 90 fa ff ff       	jmpq   403520 <.plt>

0000000000403a90 <_ZSt18_Rb_tree_decrementPSt18_Rb_tree_node_base@plt>:
  403a90:	ff 25 32 c8 24 00    	jmpq   *0x24c832(%rip)        # 6502c8 <_ZSt18_Rb_tree_decrementPSt18_Rb_tree_node_base@GLIBCXX_3.4>
  403a96:	68 56 00 00 00       	pushq  $0x56
  403a9b:	e9 80 fa ff ff       	jmpq   403520 <.plt>

0000000000403aa0 <_ZNSolsEPFRSoS_E@plt>:
  403aa0:	ff 25 2a c8 24 00    	jmpq   *0x24c82a(%rip)        # 6502d0 <_ZNSolsEPFRSoS_E@GLIBCXX_3.4>
  403aa6:	68 57 00 00 00       	pushq  $0x57
  403aab:	e9 70 fa ff ff       	jmpq   403520 <.plt>

0000000000403ab0 <_ZNSaIcED1Ev@plt>:
  403ab0:	ff 25 22 c8 24 00    	jmpq   *0x24c822(%rip)        # 6502d8 <_ZNSaIcED1Ev@GLIBCXX_3.4>
  403ab6:	68 58 00 00 00       	pushq  $0x58
  403abb:	e9 60 fa ff ff       	jmpq   403520 <.plt>

0000000000403ac0 <gluDisk@plt>:
  403ac0:	ff 25 1a c8 24 00    	jmpq   *0x24c81a(%rip)        # 6502e0 <gluDisk>
  403ac6:	68 59 00 00 00       	pushq  $0x59
  403acb:	e9 50 fa ff ff       	jmpq   403520 <.plt>

0000000000403ad0 <gluNewQuadric@plt>:
  403ad0:	ff 25 12 c8 24 00    	jmpq   *0x24c812(%rip)        # 6502e8 <gluNewQuadric>
  403ad6:	68 5a 00 00 00       	pushq  $0x5a
  403adb:	e9 40 fa ff ff       	jmpq   403520 <.plt>

0000000000403ae0 <SDL_QuitSubSystem@plt>:
  403ae0:	ff 25 0a c8 24 00    	jmpq   *0x24c80a(%rip)        # 6502f0 <SDL_QuitSubSystem>
  403ae6:	68 5b 00 00 00       	pushq  $0x5b
  403aeb:	e9 30 fa ff ff       	jmpq   403520 <.plt>

0000000000403af0 <fopen@plt>:
  403af0:	ff 25 02 c8 24 00    	jmpq   *0x24c802(%rip)        # 6502f8 <fopen@GLIBC_2.2.5>
  403af6:	68 5c 00 00 00       	pushq  $0x5c
  403afb:	e9 20 fa ff ff       	jmpq   403520 <.plt>

0000000000403b00 <free@plt>:
  403b00:	ff 25 fa c7 24 00    	jmpq   *0x24c7fa(%rip)        # 650300 <free@GLIBC_2.2.5>
  403b06:	68 5d 00 00 00       	pushq  $0x5d
  403b0b:	e9 10 fa ff ff       	jmpq   403520 <.plt>

0000000000403b10 <gluPerspective@plt>:
  403b10:	ff 25 f2 c7 24 00    	jmpq   *0x24c7f2(%rip)        # 650308 <gluPerspective>
  403b16:	68 5e 00 00 00       	pushq  $0x5e
  403b1b:	e9 00 fa ff ff       	jmpq   403520 <.plt>

0000000000403b20 <glVertex2f@plt>:
  403b20:	ff 25 ea c7 24 00    	jmpq   *0x24c7ea(%rip)        # 650310 <glVertex2f>
  403b26:	68 5f 00 00 00       	pushq  $0x5f
  403b2b:	e9 f0 f9 ff ff       	jmpq   403520 <.plt>

0000000000403b30 <glStencilOp@plt>:
  403b30:	ff 25 e2 c7 24 00    	jmpq   *0x24c7e2(%rip)        # 650318 <glStencilOp>
  403b36:	68 60 00 00 00       	pushq  $0x60
  403b3b:	e9 e0 f9 ff ff       	jmpq   403520 <.plt>

0000000000403b40 <exit@plt>:
  403b40:	ff 25 da c7 24 00    	jmpq   *0x24c7da(%rip)        # 650320 <exit@GLIBC_2.2.5>
  403b46:	68 61 00 00 00       	pushq  $0x61
  403b4b:	e9 d0 f9 ff ff       	jmpq   403520 <.plt>

0000000000403b50 <_ZNSt7__cxx1112basic_stringIcSt11char_traitsIcESaIcEEaSEOS4_@plt>:
  403b50:	ff 25 d2 c7 24 00    	jmpq   *0x24c7d2(%rip)        # 650328 <_ZNSt7__cxx1112basic_stringIcSt11char_traitsIcESaIcEEaSEOS4_@GLIBCXX_3.4.21>
  403b56:	68 62 00 00 00       	pushq  $0x62
  403b5b:	e9 c0 f9 ff ff       	jmpq   403520 <.plt>

0000000000403b60 <glBindTexture@plt>:
  403b60:	ff 25 ca c7 24 00    	jmpq   *0x24c7ca(%rip)        # 650330 <glBindTexture>
  403b66:	68 63 00 00 00       	pushq  $0x63
  403b6b:	e9 b0 f9 ff ff       	jmpq   403520 <.plt>

0000000000403b70 <glUniform1f@plt>:
  403b70:	ff 25 c2 c7 24 00    	jmpq   *0x24c7c2(%rip)        # 650338 <glUniform1f>
  403b76:	68 64 00 00 00       	pushq  $0x64
  403b7b:	e9 a0 f9 ff ff       	jmpq   403520 <.plt>

0000000000403b80 <glutInit@plt>:
  403b80:	ff 25 ba c7 24 00    	jmpq   *0x24c7ba(%rip)        # 650340 <glutInit>
  403b86:	68 65 00 00 00       	pushq  $0x65
  403b8b:	e9 90 f9 ff ff       	jmpq   403520 <.plt>

0000000000403b90 <glUniform2fv@plt>:
  403b90:	ff 25 b2 c7 24 00    	jmpq   *0x24c7b2(%rip)        # 650348 <glUniform2fv>
  403b96:	68 66 00 00 00       	pushq  $0x66
  403b9b:	e9 80 f9 ff ff       	jmpq   403520 <.plt>

0000000000403ba0 <glLoadIdentity@plt>:
  403ba0:	ff 25 aa c7 24 00    	jmpq   *0x24c7aa(%rip)        # 650350 <glLoadIdentity>
  403ba6:	68 67 00 00 00       	pushq  $0x67
  403bab:	e9 70 f9 ff ff       	jmpq   403520 <.plt>

0000000000403bb0 <glCullFace@plt>:
  403bb0:	ff 25 a2 c7 24 00    	jmpq   *0x24c7a2(%rip)        # 650358 <glCullFace>
  403bb6:	68 68 00 00 00       	pushq  $0x68
  403bbb:	e9 60 f9 ff ff       	jmpq   403520 <.plt>

0000000000403bc0 <glEnd@plt>:
  403bc0:	ff 25 9a c7 24 00    	jmpq   *0x24c79a(%rip)        # 650360 <glEnd>
  403bc6:	68 69 00 00 00       	pushq  $0x69
  403bcb:	e9 50 f9 ff ff       	jmpq   403520 <.plt>

0000000000403bd0 <malloc@plt>:
  403bd0:	ff 25 92 c7 24 00    	jmpq   *0x24c792(%rip)        # 650368 <malloc@GLIBC_2.2.5>
  403bd6:	68 6a 00 00 00       	pushq  $0x6a
  403bdb:	e9 40 f9 ff ff       	jmpq   403520 <.plt>

0000000000403be0 <glDeleteTextures@plt>:
  403be0:	ff 25 8a c7 24 00    	jmpq   *0x24c78a(%rip)        # 650370 <glDeleteTextures>
  403be6:	68 6b 00 00 00       	pushq  $0x6b
  403beb:	e9 30 f9 ff ff       	jmpq   403520 <.plt>

0000000000403bf0 <glTexParameteri@plt>:
  403bf0:	ff 25 82 c7 24 00    	jmpq   *0x24c782(%rip)        # 650378 <glTexParameteri>
  403bf6:	68 6c 00 00 00       	pushq  $0x6c
  403bfb:	e9 20 f9 ff ff       	jmpq   403520 <.plt>

0000000000403c00 <_ZNSt7__cxx1112basic_stringIcSt11char_traitsIcESaIcEEC1EPKcRKS3_@plt>:
  403c00:	ff 25 7a c7 24 00    	jmpq   *0x24c77a(%rip)        # 650380 <_ZNSt7__cxx1112basic_stringIcSt11char_traitsIcESaIcEEC1EPKcRKS3_@GLIBCXX_3.4.21>
  403c06:	68 6d 00 00 00       	pushq  $0x6d
  403c0b:	e9 10 f9 ff ff       	jmpq   403520 <.plt>

0000000000403c10 <glMatrixMode@plt>:
  403c10:	ff 25 72 c7 24 00    	jmpq   *0x24c772(%rip)        # 650388 <glMatrixMode>
  403c16:	68 6e 00 00 00       	pushq  $0x6e
  403c1b:	e9 00 f9 ff ff       	jmpq   403520 <.plt>

0000000000403c20 <glGenTextures@plt>:
  403c20:	ff 25 6a c7 24 00    	jmpq   *0x24c76a(%rip)        # 650390 <glGenTextures>
  403c26:	68 6f 00 00 00       	pushq  $0x6f
  403c2b:	e9 f0 f8 ff ff       	jmpq   403520 <.plt>

0000000000403c30 <_ZNSt7__cxx1112basic_stringIcSt11char_traitsIcESaIcEEC1Ev@plt>:
  403c30:	ff 25 62 c7 24 00    	jmpq   *0x24c762(%rip)        # 650398 <_ZNSt7__cxx1112basic_stringIcSt11char_traitsIcESaIcEEC1Ev@GLIBCXX_3.4.21>
  403c36:	68 70 00 00 00       	pushq  $0x70
  403c3b:	e9 e0 f8 ff ff       	jmpq   403520 <.plt>

0000000000403c40 <glAttachObjectARB@plt>:
  403c40:	ff 25 5a c7 24 00    	jmpq   *0x24c75a(%rip)        # 6503a0 <glAttachObjectARB>
  403c46:	68 71 00 00 00       	pushq  $0x71
  403c4b:	e9 d0 f8 ff ff       	jmpq   403520 <.plt>

0000000000403c50 <glUniform3fv@plt>:
  403c50:	ff 25 52 c7 24 00    	jmpq   *0x24c752(%rip)        # 6503a8 <glUniform3fv>
  403c56:	68 72 00 00 00       	pushq  $0x72
  403c5b:	e9 c0 f8 ff ff       	jmpq   403520 <.plt>

0000000000403c60 <fprintf@plt>:
  403c60:	ff 25 4a c7 24 00    	jmpq   *0x24c74a(%rip)        # 6503b0 <fprintf@GLIBC_2.2.5>
  403c66:	68 73 00 00 00       	pushq  $0x73
  403c6b:	e9 b0 f8 ff ff       	jmpq   403520 <.plt>

0000000000403c70 <__cxa_rethrow@plt>:
  403c70:	ff 25 42 c7 24 00    	jmpq   *0x24c742(%rip)        # 6503b8 <__cxa_rethrow@CXXABI_1.3>
  403c76:	68 74 00 00 00       	pushq  $0x74
  403c7b:	e9 a0 f8 ff ff       	jmpq   403520 <.plt>

0000000000403c80 <glUniformMatrix4fv@plt>:
  403c80:	ff 25 3a c7 24 00    	jmpq   *0x24c73a(%rip)        # 6503c0 <glUniformMatrix4fv>
  403c86:	68 75 00 00 00       	pushq  $0x75
  403c8b:	e9 90 f8 ff ff       	jmpq   403520 <.plt>

0000000000403c90 <glUniform1i@plt>:
  403c90:	ff 25 32 c7 24 00    	jmpq   *0x24c732(%rip)        # 6503c8 <glUniform1i>
  403c96:	68 76 00 00 00       	pushq  $0x76
  403c9b:	e9 80 f8 ff ff       	jmpq   403520 <.plt>

0000000000403ca0 <glClearColor@plt>:
  403ca0:	ff 25 2a c7 24 00    	jmpq   *0x24c72a(%rip)        # 6503d0 <glClearColor>
  403ca6:	68 77 00 00 00       	pushq  $0x77
  403cab:	e9 70 f8 ff ff       	jmpq   403520 <.plt>

0000000000403cb0 <fread@plt>:
  403cb0:	ff 25 22 c7 24 00    	jmpq   *0x24c722(%rip)        # 6503d8 <fread@GLIBC_2.2.5>
  403cb6:	68 78 00 00 00       	pushq  $0x78
  403cbb:	e9 60 f8 ff ff       	jmpq   403520 <.plt>

0000000000403cc0 <_ZNKSt7__cxx1112basic_stringIcSt11char_traitsIcESaIcEE6lengthEv@plt>:
  403cc0:	ff 25 1a c7 24 00    	jmpq   *0x24c71a(%rip)        # 6503e0 <_ZNKSt7__cxx1112basic_stringIcSt11char_traitsIcESaIcEE6lengthEv@GLIBCXX_3.4.21>
  403cc6:	68 79 00 00 00       	pushq  $0x79
  403ccb:	e9 50 f8 ff ff       	jmpq   403520 <.plt>

0000000000403cd0 <glScalef@plt>:
  403cd0:	ff 25 12 c7 24 00    	jmpq   *0x24c712(%rip)        # 6503e8 <glScalef>
  403cd6:	68 7a 00 00 00       	pushq  $0x7a
  403cdb:	e9 40 f8 ff ff       	jmpq   403520 <.plt>

0000000000403ce0 <_ZNSt8ios_base4InitC1Ev@plt>:
  403ce0:	ff 25 0a c7 24 00    	jmpq   *0x24c70a(%rip)        # 6503f0 <_ZNSt8ios_base4InitC1Ev@GLIBCXX_3.4>
  403ce6:	68 7b 00 00 00       	pushq  $0x7b
  403ceb:	e9 30 f8 ff ff       	jmpq   403520 <.plt>

0000000000403cf0 <puts@plt>:
  403cf0:	ff 25 02 c7 24 00    	jmpq   *0x24c702(%rip)        # 6503f8 <puts@GLIBC_2.2.5>
  403cf6:	68 7c 00 00 00       	pushq  $0x7c
  403cfb:	e9 20 f8 ff ff       	jmpq   403520 <.plt>

0000000000403d00 <glTranslatef@plt>:
  403d00:	ff 25 fa c6 24 00    	jmpq   *0x24c6fa(%rip)        # 650400 <glTranslatef>
  403d06:	68 7d 00 00 00       	pushq  $0x7d
  403d0b:	e9 10 f8 ff ff       	jmpq   403520 <.plt>

0000000000403d10 <atoi@plt>:
  403d10:	ff 25 f2 c6 24 00    	jmpq   *0x24c6f2(%rip)        # 650408 <atoi@GLIBC_2.2.5>
  403d16:	68 7e 00 00 00       	pushq  $0x7e
  403d1b:	e9 00 f8 ff ff       	jmpq   403520 <.plt>

0000000000403d20 <Mix_VolumeChunk@plt>:
  403d20:	ff 25 ea c6 24 00    	jmpq   *0x24c6ea(%rip)        # 650410 <Mix_VolumeChunk>
  403d26:	68 7f 00 00 00       	pushq  $0x7f
  403d2b:	e9 f0 f7 ff ff       	jmpq   403520 <.plt>

0000000000403d30 <fgetc@plt>:
  403d30:	ff 25 e2 c6 24 00    	jmpq   *0x24c6e2(%rip)        # 650418 <fgetc@GLIBC_2.2.5>
  403d36:	68 80 00 00 00       	pushq  $0x80
  403d3b:	e9 e0 f7 ff ff       	jmpq   403520 <.plt>

0000000000403d40 <fgets@plt>:
  403d40:	ff 25 da c6 24 00    	jmpq   *0x24c6da(%rip)        # 650420 <fgets@GLIBC_2.2.5>
  403d46:	68 81 00 00 00       	pushq  $0x81
  403d4b:	e9 d0 f7 ff ff       	jmpq   403520 <.plt>

0000000000403d50 <glPushMatrix@plt>:
  403d50:	ff 25 d2 c6 24 00    	jmpq   *0x24c6d2(%rip)        # 650428 <glPushMatrix>
  403d56:	68 82 00 00 00       	pushq  $0x82
  403d5b:	e9 c0 f7 ff ff       	jmpq   403520 <.plt>

0000000000403d60 <Mix_PlayMusic@plt>:
  403d60:	ff 25 ca c6 24 00    	jmpq   *0x24c6ca(%rip)        # 650430 <Mix_PlayMusic>
  403d66:	68 83 00 00 00       	pushq  $0x83
  403d6b:	e9 b0 f7 ff ff       	jmpq   403520 <.plt>

0000000000403d70 <memmove@plt>:
  403d70:	ff 25 c2 c6 24 00    	jmpq   *0x24c6c2(%rip)        # 650438 <memmove@GLIBC_2.2.5>
  403d76:	68 84 00 00 00       	pushq  $0x84
  403d7b:	e9 a0 f7 ff ff       	jmpq   403520 <.plt>

0000000000403d80 <__cxa_end_catch@plt>:
  403d80:	ff 25 ba c6 24 00    	jmpq   *0x24c6ba(%rip)        # 650440 <__cxa_end_catch@CXXABI_1.3>
  403d86:	68 85 00 00 00       	pushq  $0x85
  403d8b:	e9 90 f7 ff ff       	jmpq   403520 <.plt>

0000000000403d90 <glShaderSourceARB@plt>:
  403d90:	ff 25 b2 c6 24 00    	jmpq   *0x24c6b2(%rip)        # 650448 <glShaderSourceARB>
  403d96:	68 86 00 00 00       	pushq  $0x86
  403d9b:	e9 80 f7 ff ff       	jmpq   403520 <.plt>

0000000000403da0 <glFogfv@plt>:
  403da0:	ff 25 aa c6 24 00    	jmpq   *0x24c6aa(%rip)        # 650450 <glFogfv>
  403da6:	68 87 00 00 00       	pushq  $0x87
  403dab:	e9 70 f7 ff ff       	jmpq   403520 <.plt>

0000000000403db0 <SDL_GL_SetAttribute@plt>:
  403db0:	ff 25 a2 c6 24 00    	jmpq   *0x24c6a2(%rip)        # 650458 <SDL_GL_SetAttribute>
  403db6:	68 88 00 00 00       	pushq  $0x88
  403dbb:	e9 60 f7 ff ff       	jmpq   403520 <.plt>

0000000000403dc0 <glRotatef@plt>:
  403dc0:	ff 25 9a c6 24 00    	jmpq   *0x24c69a(%rip)        # 650460 <glRotatef>
  403dc6:	68 89 00 00 00       	pushq  $0x89
  403dcb:	e9 50 f7 ff ff       	jmpq   403520 <.plt>

0000000000403dd0 <_ZNSolsEi@plt>:
  403dd0:	ff 25 92 c6 24 00    	jmpq   *0x24c692(%rip)        # 650468 <_ZNSolsEi@GLIBCXX_3.4>
  403dd6:	68 8a 00 00 00       	pushq  $0x8a
  403ddb:	e9 40 f7 ff ff       	jmpq   403520 <.plt>

0000000000403de0 <SDL_GL_SwapBuffers@plt>:
  403de0:	ff 25 8a c6 24 00    	jmpq   *0x24c68a(%rip)        # 650470 <SDL_GL_SwapBuffers>
  403de6:	68 8b 00 00 00       	pushq  $0x8b
  403deb:	e9 30 f7 ff ff       	jmpq   403520 <.plt>

0000000000403df0 <glLightfv@plt>:
  403df0:	ff 25 82 c6 24 00    	jmpq   *0x24c682(%rip)        # 650478 <glLightfv>
  403df6:	68 8c 00 00 00       	pushq  $0x8c
  403dfb:	e9 20 f7 ff ff       	jmpq   403520 <.plt>

0000000000403e00 <_Unwind_Resume@plt>:
  403e00:	ff 25 7a c6 24 00    	jmpq   *0x24c67a(%rip)        # 650480 <_Unwind_Resume@GCC_3.0>
  403e06:	68 8d 00 00 00       	pushq  $0x8d
  403e0b:	e9 10 f7 ff ff       	jmpq   403520 <.plt>

0000000000403e10 <IMG_Load@plt>:
  403e10:	ff 25 72 c6 24 00    	jmpq   *0x24c672(%rip)        # 650488 <IMG_Load>
  403e16:	68 8e 00 00 00       	pushq  $0x8e
  403e1b:	e9 00 f7 ff ff       	jmpq   403520 <.plt>

0000000000403e20 <_ZNSaIcEC1Ev@plt>:
  403e20:	ff 25 6a c6 24 00    	jmpq   *0x24c66a(%rip)        # 650490 <_ZNSaIcEC1Ev@GLIBCXX_3.4>
  403e26:	68 8f 00 00 00       	pushq  $0x8f
  403e2b:	e9 f0 f6 ff ff       	jmpq   403520 <.plt>

0000000000403e30 <glLinkProgramARB@plt>:
  403e30:	ff 25 62 c6 24 00    	jmpq   *0x24c662(%rip)        # 650498 <glLinkProgramARB>
  403e36:	68 90 00 00 00       	pushq  $0x90
  403e3b:	e9 e0 f6 ff ff       	jmpq   403520 <.plt>

0000000000403e40 <SDL_GetKeyState@plt>:
  403e40:	ff 25 5a c6 24 00    	jmpq   *0x24c65a(%rip)        # 6504a0 <SDL_GetKeyState>
  403e46:	68 91 00 00 00       	pushq  $0x91
  403e4b:	e9 d0 f6 ff ff       	jmpq   403520 <.plt>

0000000000403e50 <gluQuadricTexture@plt>:
  403e50:	ff 25 52 c6 24 00    	jmpq   *0x24c652(%rip)        # 6504a8 <gluQuadricTexture>
  403e56:	68 92 00 00 00       	pushq  $0x92
  403e5b:	e9 c0 f6 ff ff       	jmpq   403520 <.plt>

0000000000403e60 <glPopMatrix@plt>:
  403e60:	ff 25 4a c6 24 00    	jmpq   *0x24c64a(%rip)        # 6504b0 <glPopMatrix>
  403e66:	68 93 00 00 00       	pushq  $0x93
  403e6b:	e9 b0 f6 ff ff       	jmpq   403520 <.plt>

0000000000403e70 <Mix_LoadWAV_RW@plt>:
  403e70:	ff 25 42 c6 24 00    	jmpq   *0x24c642(%rip)        # 6504b8 <Mix_LoadWAV_RW>
  403e76:	68 94 00 00 00       	pushq  $0x94
  403e7b:	e9 a0 f6 ff ff       	jmpq   403520 <.plt>

0000000000403e80 <glOrtho@plt>:
  403e80:	ff 25 3a c6 24 00    	jmpq   *0x24c63a(%rip)        # 6504c0 <glOrtho>
  403e86:	68 95 00 00 00       	pushq  $0x95
  403e8b:	e9 90 f6 ff ff       	jmpq   403520 <.plt>

0000000000403e90 <_ZNSt7__cxx1112basic_stringIcSt11char_traitsIcESaIcEE6appendEPKc@plt>:
  403e90:	ff 25 32 c6 24 00    	jmpq   *0x24c632(%rip)        # 6504c8 <_ZNSt7__cxx1112basic_stringIcSt11char_traitsIcESaIcEE6appendEPKc@GLIBCXX_3.4.21>
  403e96:	68 96 00 00 00       	pushq  $0x96
  403e9b:	e9 80 f6 ff ff       	jmpq   403520 <.plt>

0000000000403ea0 <fwrite@plt>:
  403ea0:	ff 25 2a c6 24 00    	jmpq   *0x24c62a(%rip)        # 6504d0 <fwrite@GLIBC_2.2.5>
  403ea6:	68 97 00 00 00       	pushq  $0x97
  403eab:	e9 70 f6 ff ff       	jmpq   403520 <.plt>

0000000000403eb0 <glMaterialfv@plt>:
  403eb0:	ff 25 22 c6 24 00    	jmpq   *0x24c622(%rip)        # 6504d8 <glMaterialfv>
  403eb6:	68 98 00 00 00       	pushq  $0x98
  403ebb:	e9 60 f6 ff ff       	jmpq   403520 <.plt>

0000000000403ec0 <SDL_ShowCursor@plt>:
  403ec0:	ff 25 1a c6 24 00    	jmpq   *0x24c61a(%rip)        # 6504e0 <SDL_ShowCursor>
  403ec6:	68 99 00 00 00       	pushq  $0x99
  403ecb:	e9 50 f6 ff ff       	jmpq   403520 <.plt>

0000000000403ed0 <glCompileShaderARB@plt>:
  403ed0:	ff 25 12 c6 24 00    	jmpq   *0x24c612(%rip)        # 6504e8 <glCompileShaderARB>
  403ed6:	68 9a 00 00 00       	pushq  $0x9a
  403edb:	e9 40 f6 ff ff       	jmpq   403520 <.plt>

0000000000403ee0 <_ZNSt7__cxx1112basic_stringIcSt11char_traitsIcESaIcEEixEm@plt>:
  403ee0:	ff 25 0a c6 24 00    	jmpq   *0x24c60a(%rip)        # 6504f0 <_ZNSt7__cxx1112basic_stringIcSt11char_traitsIcESaIcEEixEm@GLIBCXX_3.4.21>
  403ee6:	68 9b 00 00 00       	pushq  $0x9b
  403eeb:	e9 30 f6 ff ff       	jmpq   403520 <.plt>

0000000000403ef0 <glFinish@plt>:
  403ef0:	ff 25 02 c6 24 00    	jmpq   *0x24c602(%rip)        # 6504f8 <glFinish>
  403ef6:	68 9c 00 00 00       	pushq  $0x9c
  403efb:	e9 20 f6 ff ff       	jmpq   403520 <.plt>

0000000000403f00 <glVertex3f@plt>:
  403f00:	ff 25 fa c5 24 00    	jmpq   *0x24c5fa(%rip)        # 650500 <glVertex3f>
  403f06:	68 9d 00 00 00       	pushq  $0x9d
  403f0b:	e9 10 f6 ff ff       	jmpq   403520 <.plt>

Disassembly of section .plt.got:

0000000000403f10 <_ZNSt7__cxx1112basic_stringIcSt11char_traitsIcESaIcEED1Ev@plt>:
  403f10:	ff 25 aa c0 24 00    	jmpq   *0x24c0aa(%rip)        # 64ffc0 <_ZNSt7__cxx1112basic_stringIcSt11char_traitsIcESaIcEED1Ev@GLIBCXX_3.4.21>
  403f16:	66 90                	xchg   %ax,%ax

0000000000403f18 <__cxa_atexit@plt>:
  403f18:	ff 25 aa c0 24 00    	jmpq   *0x24c0aa(%rip)        # 64ffc8 <__cxa_atexit@GLIBC_2.2.5>
  403f1e:	66 90                	xchg   %ax,%ax

Disassembly of section .text:

0000000000403f20 <_start>:
  403f20:	31 ed                	xor    %ebp,%ebp
  403f22:	49 89 d1             	mov    %rdx,%r9
  403f25:	5e                   	pop    %rsi
  403f26:	48 89 e2             	mov    %rsp,%rdx
  403f29:	48 83 e4 f0          	and    $0xfffffffffffffff0,%rsp
  403f2d:	50                   	push   %rax
  403f2e:	54                   	push   %rsp
  403f2f:	49 c7 c0 f0 6b 43 00 	mov    $0x436bf0,%r8
  403f36:	48 c7 c1 80 6b 43 00 	mov    $0x436b80,%rcx
  403f3d:	48 c7 c7 ce 4f 40 00 	mov    $0x404fce,%rdi
  403f44:	ff 15 96 c0 24 00    	callq  *0x24c096(%rip)        # 64ffe0 <__libc_start_main@GLIBC_2.2.5>
  403f4a:	f4                   	hlt    
  403f4b:	0f 1f 44 00 00       	nopl   0x0(%rax,%rax,1)

0000000000403f50 <deregister_tm_clones>:
  403f50:	55                   	push   %rbp
  403f51:	b8 50 05 65 00       	mov    $0x650550,%eax
  403f56:	48 3d 50 05 65 00    	cmp    $0x650550,%rax
  403f5c:	48 89 e5             	mov    %rsp,%rbp
  403f5f:	74 17                	je     403f78 <deregister_tm_clones+0x28>
  403f61:	48 8b 05 70 c0 24 00 	mov    0x24c070(%rip),%rax        # 64ffd8 <_ITM_deregisterTMCloneTable>
  403f68:	48 85 c0             	test   %rax,%rax
  403f6b:	74 0b                	je     403f78 <deregister_tm_clones+0x28>
  403f6d:	5d                   	pop    %rbp
  403f6e:	bf 50 05 65 00       	mov    $0x650550,%edi
  403f73:	ff e0                	jmpq   *%rax
  403f75:	0f 1f 00             	nopl   (%rax)
  403f78:	5d                   	pop    %rbp
  403f79:	c3                   	retq   
  403f7a:	66 0f 1f 44 00 00    	nopw   0x0(%rax,%rax,1)

0000000000403f80 <register_tm_clones>:
  403f80:	be 50 05 65 00       	mov    $0x650550,%esi
  403f85:	55                   	push   %rbp
  403f86:	48 81 ee 50 05 65 00 	sub    $0x650550,%rsi
  403f8d:	48 89 e5             	mov    %rsp,%rbp
  403f90:	48 c1 fe 03          	sar    $0x3,%rsi
  403f94:	48 89 f0             	mov    %rsi,%rax
  403f97:	48 c1 e8 3f          	shr    $0x3f,%rax
  403f9b:	48 01 c6             	add    %rax,%rsi
  403f9e:	48 d1 fe             	sar    %rsi
  403fa1:	74 1d                	je     403fc0 <register_tm_clones+0x40>
  403fa3:	48 8b 05 46 c0 24 00 	mov    0x24c046(%rip),%rax        # 64fff0 <_ITM_registerTMCloneTable>
  403faa:	48 85 c0             	test   %rax,%rax
  403fad:	74 11                	je     403fc0 <register_tm_clones+0x40>
  403faf:	5d                   	pop    %rbp
  403fb0:	bf 50 05 65 00       	mov    $0x650550,%edi
  403fb5:	ff e0                	jmpq   *%rax
  403fb7:	66 0f 1f 84 00 00 00 	nopw   0x0(%rax,%rax,1)
  403fbe:	00 00 
  403fc0:	5d                   	pop    %rbp
  403fc1:	c3                   	retq   
  403fc2:	0f 1f 40 00          	nopl   0x0(%rax)
  403fc6:	66 2e 0f 1f 84 00 00 	nopw   %cs:0x0(%rax,%rax,1)
  403fcd:	00 00 00 

0000000000403fd0 <__do_global_dtors_aux>:
  403fd0:	80 3d f9 c6 24 00 00 	cmpb   $0x0,0x24c6f9(%rip)        # 6506d0 <completed.6974>
  403fd7:	75 17                	jne    403ff0 <__do_global_dtors_aux+0x20>
  403fd9:	55                   	push   %rbp
  403fda:	48 89 e5             	mov    %rsp,%rbp
  403fdd:	e8 6e ff ff ff       	callq  403f50 <deregister_tm_clones>
  403fe2:	c6 05 e7 c6 24 00 01 	movb   $0x1,0x24c6e7(%rip)        # 6506d0 <completed.6974>
  403fe9:	5d                   	pop    %rbp
  403fea:	c3                   	retq   
  403feb:	0f 1f 44 00 00       	nopl   0x0(%rax,%rax,1)
  403ff0:	f3 c3                	repz retq 
  403ff2:	0f 1f 40 00          	nopl   0x0(%rax)
  403ff6:	66 2e 0f 1f 84 00 00 	nopw   %cs:0x0(%rax,%rax,1)
  403ffd:	00 00 00 

0000000000404000 <frame_dummy>:
  404000:	55                   	push   %rbp
  404001:	48 89 e5             	mov    %rsp,%rbp
  404004:	5d                   	pop    %rbp
  404005:	e9 76 ff ff ff       	jmpq   403f80 <register_tm_clones>

000000000040400a <_ZL9timeEventff>:
  40400a:	55                   	push   %rbp
  40400b:	48 89 e5             	mov    %rsp,%rbp
  40400e:	48 83 ec 20          	sub    $0x20,%rsp
  404012:	f3 0f 11 45 ec       	movss  %xmm0,-0x14(%rbp)
  404017:	f3 0f 11 4d e8       	movss  %xmm1,-0x18(%rbp)
  40401c:	48 8b 05 f5 c6 24 00 	mov    0x24c6f5(%rip),%rax        # 650718 <_ZN12_GLOBAL__N_14menuE>
  404023:	48 89 c7             	mov    %rax,%rdi
  404026:	e8 6f 1b 03 00       	callq  435b9a <_ZN4Menu8isActiveEv>
  40402b:	84 c0                	test   %al,%al
  40402d:	0f 85 b5 02 00 00    	jne    4042e8 <_ZL9timeEventff+0x2de>
  404033:	bf 00 00 00 00       	mov    $0x0,%edi
  404038:	e8 03 fe ff ff       	callq  403e40 <SDL_GetKeyState@plt>
  40403d:	48 89 45 f8          	mov    %rax,-0x8(%rbp)
  404041:	48 8b 05 b8 c6 24 00 	mov    0x24c6b8(%rip),%rax        # 650700 <_ZN12_GLOBAL__N_16playerE>
  404048:	48 89 c7             	mov    %rax,%rdi
  40404b:	e8 fa 93 01 00       	callq  41d44a <_ZN6Player10save_stateEv>
  404050:	48 8b 05 a9 c6 24 00 	mov    0x24c6a9(%rip),%rax        # 650700 <_ZN12_GLOBAL__N_16playerE>
  404057:	48 89 c7             	mov    %rax,%rdi
  40405a:	e8 07 93 01 00       	callq  41d366 <_ZN6Player7gravityEv>
  40405f:	48 8b 05 9a c6 24 00 	mov    0x24c69a(%rip),%rax        # 650700 <_ZN12_GLOBAL__N_16playerE>
  404066:	be 01 00 00 00       	mov    $0x1,%esi
  40406b:	48 89 c7             	mov    %rax,%rdi
  40406e:	e8 db 94 01 00       	callq  41d54e <_ZN6Player18collision_reactionEb>
  404073:	48 8b 05 86 c6 24 00 	mov    0x24c686(%rip),%rax        # 650700 <_ZN12_GLOBAL__N_16playerE>
  40407a:	48 89 c7             	mov    %rax,%rdi
  40407d:	e8 c8 93 01 00       	callq  41d44a <_ZN6Player10save_stateEv>
  404082:	48 8b 45 f8          	mov    -0x8(%rbp),%rax
  404086:	48 83 c0 61          	add    $0x61,%rax
  40408a:	0f b6 00             	movzbl (%rax),%eax
  40408d:	84 c0                	test   %al,%al
  40408f:	74 0f                	je     4040a0 <_ZL9timeEventff+0x96>
  404091:	48 8b 05 68 c6 24 00 	mov    0x24c668(%rip),%rax        # 650700 <_ZN12_GLOBAL__N_16playerE>
  404098:	48 89 c7             	mov    %rax,%rdi
  40409b:	e8 ec 8d 01 00       	callq  41ce8c <_ZN6Player14step_leftwardsEv>
  4040a0:	48 8b 45 f8          	mov    -0x8(%rbp),%rax
  4040a4:	48 83 c0 64          	add    $0x64,%rax
  4040a8:	0f b6 00             	movzbl (%rax),%eax
  4040ab:	84 c0                	test   %al,%al
  4040ad:	74 0f                	je     4040be <_ZL9timeEventff+0xb4>
  4040af:	48 8b 05 4a c6 24 00 	mov    0x24c64a(%rip),%rax        # 650700 <_ZN12_GLOBAL__N_16playerE>
  4040b6:	48 89 c7             	mov    %rax,%rdi
  4040b9:	e8 74 8e 01 00       	callq  41cf32 <_ZN6Player15step_rightwardsEv>
  4040be:	48 8b 45 f8          	mov    -0x8(%rbp),%rax
  4040c2:	48 83 c0 63          	add    $0x63,%rax
  4040c6:	0f b6 00             	movzbl (%rax),%eax
  4040c9:	84 c0                	test   %al,%al
  4040cb:	74 1d                	je     4040ea <_ZL9timeEventff+0xe0>
  4040cd:	48 8b 05 2c c6 24 00 	mov    0x24c62c(%rip),%rax        # 650700 <_ZN12_GLOBAL__N_16playerE>
  4040d4:	48 89 c7             	mov    %rax,%rdi
  4040d7:	e8 d6 91 01 00       	callq  41d2b2 <_ZN6Player9isJumpingEv>
  4040dc:	83 f0 01             	xor    $0x1,%eax
  4040df:	84 c0                	test   %al,%al
  4040e1:	74 07                	je     4040ea <_ZL9timeEventff+0xe0>
  4040e3:	b8 01 00 00 00       	mov    $0x1,%eax
  4040e8:	eb 05                	jmp    4040ef <_ZL9timeEventff+0xe5>
  4040ea:	b8 00 00 00 00       	mov    $0x0,%eax
  4040ef:	84 c0                	test   %al,%al
  4040f1:	74 0f                	je     404102 <_ZL9timeEventff+0xf8>
  4040f3:	48 8b 05 06 c6 24 00 	mov    0x24c606(%rip),%rax        # 650700 <_ZN12_GLOBAL__N_16playerE>
  4040fa:	48 89 c7             	mov    %rax,%rdi
  4040fd:	e8 c2 91 01 00       	callq  41d2c4 <_ZN6Player6crouchEv>
  404102:	48 8b 45 f8          	mov    -0x8(%rbp),%rax
  404106:	48 83 c0 20          	add    $0x20,%rax
  40410a:	0f b6 00             	movzbl (%rax),%eax
  40410d:	84 c0                	test   %al,%al
  40410f:	74 1e                	je     40412f <_ZL9timeEventff+0x125>
  404111:	48 8b 45 f8          	mov    -0x8(%rbp),%rax
  404115:	48 83 c0 63          	add    $0x63,%rax
  404119:	0f b6 00             	movzbl (%rax),%eax
  40411c:	84 c0                	test   %al,%al
  40411e:	75 0f                	jne    40412f <_ZL9timeEventff+0x125>
  404120:	48 8b 05 d9 c5 24 00 	mov    0x24c5d9(%rip),%rax        # 650700 <_ZN12_GLOBAL__N_16playerE>
  404127:	48 89 c7             	mov    %rax,%rdi
  40412a:	e8 6d 90 01 00       	callq  41d19c <_ZN6Player4jumpEv>
  40412f:	48 8b 45 f8          	mov    -0x8(%rbp),%rax
  404133:	48 05 14 01 00 00    	add    $0x114,%rax
  404139:	0f b6 00             	movzbl (%rax),%eax
  40413c:	84 c0                	test   %al,%al
  40413e:	74 0f                	je     40414f <_ZL9timeEventff+0x145>
  404140:	48 8b 05 b9 c5 24 00 	mov    0x24c5b9(%rip),%rax        # 650700 <_ZN12_GLOBAL__N_16playerE>
  404147:	48 89 c7             	mov    %rax,%rdi
  40414a:	e8 89 8e 01 00       	callq  41cfd8 <_ZN6Player11rotate_leftEv>
  40414f:	48 8b 45 f8          	mov    -0x8(%rbp),%rax
  404153:	48 05 13 01 00 00    	add    $0x113,%rax
  404159:	0f b6 00             	movzbl (%rax),%eax
  40415c:	84 c0                	test   %al,%al
  40415e:	74 0f                	je     40416f <_ZL9timeEventff+0x165>
  404160:	48 8b 05 99 c5 24 00 	mov    0x24c599(%rip),%rax        # 650700 <_ZN12_GLOBAL__N_16playerE>
  404167:	48 89 c7             	mov    %rax,%rdi
  40416a:	e8 c1 8e 01 00       	callq  41d030 <_ZN6Player12rotate_rightEv>
  40416f:	48 8b 45 f8          	mov    -0x8(%rbp),%rax
  404173:	48 05 11 01 00 00    	add    $0x111,%rax
  404179:	0f b6 00             	movzbl (%rax),%eax
  40417c:	84 c0                	test   %al,%al
  40417e:	74 0f                	je     40418f <_ZL9timeEventff+0x185>
  404180:	48 8b 05 79 c5 24 00 	mov    0x24c579(%rip),%rax        # 650700 <_ZN12_GLOBAL__N_16playerE>
  404187:	48 89 c7             	mov    %rax,%rdi
  40418a:	e8 f5 8e 01 00       	callq  41d084 <_ZN6Player9rotate_upEv>
  40418f:	48 8b 45 f8          	mov    -0x8(%rbp),%rax
  404193:	48 05 12 01 00 00    	add    $0x112,%rax
  404199:	0f b6 00             	movzbl (%rax),%eax
  40419c:	84 c0                	test   %al,%al
  40419e:	74 0f                	je     4041af <_ZL9timeEventff+0x1a5>
  4041a0:	48 8b 05 59 c5 24 00 	mov    0x24c559(%rip),%rax        # 650700 <_ZN12_GLOBAL__N_16playerE>
  4041a7:	48 89 c7             	mov    %rax,%rdi
  4041aa:	e8 61 8f 01 00       	callq  41d110 <_ZN6Player11rotate_downEv>
  4041af:	48 8b 45 f8          	mov    -0x8(%rbp),%rax
  4041b3:	48 83 c0 77          	add    $0x77,%rax
  4041b7:	0f b6 00             	movzbl (%rax),%eax
  4041ba:	84 c0                	test   %al,%al
  4041bc:	74 0f                	je     4041cd <_ZL9timeEventff+0x1c3>
  4041be:	48 8b 05 3b c5 24 00 	mov    0x24c53b(%rip),%rax        # 650700 <_ZN12_GLOBAL__N_16playerE>
  4041c5:	48 89 c7             	mov    %rax,%rdi
  4041c8:	e8 c1 8a 01 00       	callq  41cc8e <_ZN6Player13step_forwardsEv>
  4041cd:	48 8b 45 f8          	mov    -0x8(%rbp),%rax
  4041d1:	48 83 c0 73          	add    $0x73,%rax
  4041d5:	0f b6 00             	movzbl (%rax),%eax
  4041d8:	84 c0                	test   %al,%al
  4041da:	74 0f                	je     4041eb <_ZL9timeEventff+0x1e1>
  4041dc:	48 8b 05 1d c5 24 00 	mov    0x24c51d(%rip),%rax        # 650700 <_ZN12_GLOBAL__N_16playerE>
  4041e3:	48 89 c7             	mov    %rax,%rdi
  4041e6:	e8 a1 8b 01 00       	callq  41cd8c <_ZN6Player14step_backwardsEv>
  4041eb:	48 8b 05 0e c5 24 00 	mov    0x24c50e(%rip),%rax        # 650700 <_ZN12_GLOBAL__N_16playerE>
  4041f2:	be 00 00 00 00       	mov    $0x0,%esi
  4041f7:	48 89 c7             	mov    %rax,%rdi
  4041fa:	e8 4f 93 01 00       	callq  41d54e <_ZN6Player18collision_reactionEb>
  4041ff:	48 8b 05 ea c4 24 00 	mov    0x24c4ea(%rip),%rax        # 6506f0 <_ZN12_GLOBAL__N_16cameraE>
  404206:	48 89 c7             	mov    %rax,%rdi
  404209:	e8 98 c1 02 00       	callq  4303a6 <_ZN6Camera10calcNormalEv>
  40420e:	48 8b 05 e3 c4 24 00 	mov    0x24c4e3(%rip),%rax        # 6506f8 <_ZN12_GLOBAL__N_15levelE>
  404215:	48 8b 80 68 01 00 00 	mov    0x168(%rax),%rax
  40421c:	0f b6 40 04          	movzbl 0x4(%rax),%eax
  404220:	84 c0                	test   %al,%al
  404222:	74 24                	je     404248 <_ZL9timeEventff+0x23e>
  404224:	48 8b 05 cd c4 24 00 	mov    0x24c4cd(%rip),%rax        # 6506f8 <_ZN12_GLOBAL__N_15levelE>
  40422b:	48 8b 80 68 01 00 00 	mov    0x168(%rax),%rax
  404232:	48 8b 15 b7 c4 24 00 	mov    0x24c4b7(%rip),%rdx        # 6506f0 <_ZN12_GLOBAL__N_16cameraE>
  404239:	48 83 c2 04          	add    $0x4,%rdx
  40423d:	48 89 d6             	mov    %rdx,%rsi
  404240:	48 89 c7             	mov    %rax,%rdi
  404243:	e8 0a b4 02 00       	callq  42f652 <_ZN5Torch11setPositionEPf>
  404248:	48 8b 45 f8          	mov    -0x8(%rbp),%rax
  40424c:	48 83 c0 61          	add    $0x61,%rax
  404250:	0f b6 00             	movzbl (%rax),%eax
  404253:	84 c0                	test   %al,%al
  404255:	75 2d                	jne    404284 <_ZL9timeEventff+0x27a>
  404257:	48 8b 45 f8          	mov    -0x8(%rbp),%rax
  40425b:	48 83 c0 73          	add    $0x73,%rax
  40425f:	0f b6 00             	movzbl (%rax),%eax
  404262:	84 c0                	test   %al,%al
  404264:	75 1e                	jne    404284 <_ZL9timeEventff+0x27a>
  404266:	48 8b 45 f8          	mov    -0x8(%rbp),%rax
  40426a:	48 83 c0 64          	add    $0x64,%rax
  40426e:	0f b6 00             	movzbl (%rax),%eax
  404271:	84 c0                	test   %al,%al
  404273:	75 0f                	jne    404284 <_ZL9timeEventff+0x27a>
  404275:	48 8b 45 f8          	mov    -0x8(%rbp),%rax
  404279:	48 83 c0 77          	add    $0x77,%rax
  40427d:	0f b6 00             	movzbl (%rax),%eax
  404280:	84 c0                	test   %al,%al
  404282:	74 53                	je     4042d7 <_ZL9timeEventff+0x2cd>
  404284:	48 8b 05 75 c4 24 00 	mov    0x24c475(%rip),%rax        # 650700 <_ZN12_GLOBAL__N_16playerE>
  40428b:	0f b6 40 01          	movzbl 0x1(%rax),%eax
  40428f:	83 f0 01             	xor    $0x1,%eax
  404292:	84 c0                	test   %al,%al
  404294:	74 41                	je     4042d7 <_ZL9timeEventff+0x2cd>
  404296:	48 8b 05 63 c4 24 00 	mov    0x24c463(%rip),%rax        # 650700 <_ZN12_GLOBAL__N_16playerE>
  40429d:	8b 40 08             	mov    0x8(%rax),%eax
  4042a0:	83 f8 0a             	cmp    $0xa,%eax
  4042a3:	7f 32                	jg     4042d7 <_ZL9timeEventff+0x2cd>
  4042a5:	48 8b 05 54 c4 24 00 	mov    0x24c454(%rip),%rax        # 650700 <_ZN12_GLOBAL__N_16playerE>
  4042ac:	0f b6 00             	movzbl (%rax),%eax
  4042af:	83 f0 01             	xor    $0x1,%eax
  4042b2:	84 c0                	test   %al,%al
  4042b4:	74 21                	je     4042d7 <_ZL9timeEventff+0x2cd>
  4042b6:	48 8b 05 53 c4 24 00 	mov    0x24c453(%rip),%rax        # 650710 <_ZN12_GLOBAL__N_15soundE>
  4042bd:	48 8b 15 3c c4 24 00 	mov    0x24c43c(%rip),%rdx        # 650700 <_ZN12_GLOBAL__N_16playerE>
  4042c4:	0f b6 52 0c          	movzbl 0xc(%rdx),%edx
  4042c8:	0f b6 d2             	movzbl %dl,%edx
  4042cb:	89 d6                	mov    %edx,%esi
  4042cd:	48 89 c7             	mov    %rax,%rdi
  4042d0:	e8 9b 09 03 00       	callq  434c70 <_ZN5Sound13playFootstepsEb>
  4042d5:	eb 12                	jmp    4042e9 <_ZL9timeEventff+0x2df>
  4042d7:	48 8b 05 32 c4 24 00 	mov    0x24c432(%rip),%rax        # 650710 <_ZN12_GLOBAL__N_15soundE>
  4042de:	48 89 c7             	mov    %rax,%rdi
  4042e1:	e8 96 0a 03 00       	callq  434d7c <_ZN5Sound13stopFootstepsEv>
  4042e6:	eb 01                	jmp    4042e9 <_ZL9timeEventff+0x2df>
  4042e8:	90                   	nop
  4042e9:	c9                   	leaveq 
  4042ea:	c3                   	retq   

00000000004042eb <_ZL10keyUpEvent6SDLKey>:
  4042eb:	55                   	push   %rbp
  4042ec:	48 89 e5             	mov    %rsp,%rbp
  4042ef:	48 83 ec 10          	sub    $0x10,%rsp
  4042f3:	89 7d fc             	mov    %edi,-0x4(%rbp)
  4042f6:	48 8b 05 1b c4 24 00 	mov    0x24c41b(%rip),%rax        # 650718 <_ZN12_GLOBAL__N_14menuE>
  4042fd:	48 89 c7             	mov    %rax,%rdi
  404300:	e8 95 18 03 00       	callq  435b9a <_ZN4Menu8isActiveEv>
  404305:	84 c0                	test   %al,%al
  404307:	90                   	nop
  404308:	c9                   	leaveq 
  404309:	c3                   	retq   

000000000040430a <_ZL12keyDownEvent6SDLKey>:
  40430a:	55                   	push   %rbp
  40430b:	48 89 e5             	mov    %rsp,%rbp
  40430e:	48 83 ec 20          	sub    $0x20,%rsp
  404312:	89 7d ec             	mov    %edi,-0x14(%rbp)
  404315:	48 8b 05 fc c3 24 00 	mov    0x24c3fc(%rip),%rax        # 650718 <_ZN12_GLOBAL__N_14menuE>
  40431c:	48 89 c7             	mov    %rax,%rdi
  40431f:	e8 76 18 03 00       	callq  435b9a <_ZN4Menu8isActiveEv>
  404324:	84 c0                	test   %al,%al
  404326:	74 0d                	je     404335 <_ZL12keyDownEvent6SDLKey+0x2b>
  404328:	83 7d ec 1b          	cmpl   $0x1b,-0x14(%rbp)
  40432c:	74 07                	je     404335 <_ZL12keyDownEvent6SDLKey+0x2b>
  40432e:	b8 01 00 00 00       	mov    $0x1,%eax
  404333:	eb 05                	jmp    40433a <_ZL12keyDownEvent6SDLKey+0x30>
  404335:	b8 00 00 00 00       	mov    $0x0,%eax
  40433a:	84 c0                	test   %al,%al
  40433c:	0f 85 83 02 00 00    	jne    4045c5 <_ZL12keyDownEvent6SDLKey+0x2bb>
  404342:	c7 45 fc 00 00 00 00 	movl   $0x0,-0x4(%rbp)
  404349:	8b 45 ec             	mov    -0x14(%rbp),%eax
  40434c:	3d 1e 01 00 00       	cmp    $0x11e,%eax
  404351:	0f 84 26 01 00 00    	je     40447d <_ZL12keyDownEvent6SDLKey+0x173>
  404357:	3d 1e 01 00 00       	cmp    $0x11e,%eax
  40435c:	7f 40                	jg     40439e <_ZL12keyDownEvent6SDLKey+0x94>
  40435e:	3d 1a 01 00 00       	cmp    $0x11a,%eax
  404363:	0f 84 e4 00 00 00    	je     40444d <_ZL12keyDownEvent6SDLKey+0x143>
  404369:	3d 1a 01 00 00       	cmp    $0x11a,%eax
  40436e:	7f 13                	jg     404383 <_ZL12keyDownEvent6SDLKey+0x79>
  404370:	83 f8 1b             	cmp    $0x1b,%eax
  404373:	74 7c                	je     4043f1 <_ZL12keyDownEvent6SDLKey+0xe7>
  404375:	83 f8 74             	cmp    $0x74,%eax
  404378:	0f 84 4d 01 00 00    	je     4044cb <_ZL12keyDownEvent6SDLKey+0x1c1>
  40437e:	e9 95 01 00 00       	jmpq   404518 <_ZL12keyDownEvent6SDLKey+0x20e>
  404383:	3d 1c 01 00 00       	cmp    $0x11c,%eax
  404388:	0f 84 d7 00 00 00    	je     404465 <_ZL12keyDownEvent6SDLKey+0x15b>
  40438e:	3d 1c 01 00 00       	cmp    $0x11c,%eax
  404393:	0f 8f d8 00 00 00    	jg     404471 <_ZL12keyDownEvent6SDLKey+0x167>
  404399:	e9 bb 00 00 00       	jmpq   404459 <_ZL12keyDownEvent6SDLKey+0x14f>
  40439e:	3d 22 01 00 00       	cmp    $0x122,%eax
  4043a3:	0f 84 fe 00 00 00    	je     4044a7 <_ZL12keyDownEvent6SDLKey+0x19d>
  4043a9:	3d 22 01 00 00       	cmp    $0x122,%eax
  4043ae:	7f 1b                	jg     4043cb <_ZL12keyDownEvent6SDLKey+0xc1>
  4043b0:	3d 20 01 00 00       	cmp    $0x120,%eax
  4043b5:	0f 84 da 00 00 00    	je     404495 <_ZL12keyDownEvent6SDLKey+0x18b>
  4043bb:	3d 20 01 00 00       	cmp    $0x120,%eax
  4043c0:	0f 8f d8 00 00 00    	jg     40449e <_ZL12keyDownEvent6SDLKey+0x194>
  4043c6:	e9 be 00 00 00       	jmpq   404489 <_ZL12keyDownEvent6SDLKey+0x17f>
  4043cb:	3d 24 01 00 00       	cmp    $0x124,%eax
  4043d0:	0f 84 e3 00 00 00    	je     4044b9 <_ZL12keyDownEvent6SDLKey+0x1af>
  4043d6:	3d 24 01 00 00       	cmp    $0x124,%eax
  4043db:	0f 8c cf 00 00 00    	jl     4044b0 <_ZL12keyDownEvent6SDLKey+0x1a6>
  4043e1:	3d 25 01 00 00       	cmp    $0x125,%eax
  4043e6:	0f 84 d6 00 00 00    	je     4044c2 <_ZL12keyDownEvent6SDLKey+0x1b8>
  4043ec:	e9 27 01 00 00       	jmpq   404518 <_ZL12keyDownEvent6SDLKey+0x20e>
  4043f1:	48 8b 05 20 c3 24 00 	mov    0x24c320(%rip),%rax        # 650718 <_ZN12_GLOBAL__N_14menuE>
  4043f8:	48 89 c7             	mov    %rax,%rdi
  4043fb:	e8 9a 17 03 00       	callq  435b9a <_ZN4Menu8isActiveEv>
  404400:	83 f0 01             	xor    $0x1,%eax
  404403:	84 c0                	test   %al,%al
  404405:	74 32                	je     404439 <_ZL12keyDownEvent6SDLKey+0x12f>
  404407:	48 8b 05 0a c3 24 00 	mov    0x24c30a(%rip),%rax        # 650718 <_ZN12_GLOBAL__N_14menuE>
  40440e:	48 89 c7             	mov    %rax,%rdi
  404411:	e8 96 17 03 00       	callq  435bac <_ZN4Menu8activateEv>
  404416:	48 8b 05 f3 c2 24 00 	mov    0x24c2f3(%rip),%rax        # 650710 <_ZN12_GLOBAL__N_15soundE>
  40441d:	48 89 c7             	mov    %rax,%rdi
  404420:	e8 0b 08 03 00       	callq  434c30 <_ZN5Sound9stopTorchEv>
  404425:	48 8b 05 e4 c2 24 00 	mov    0x24c2e4(%rip),%rax        # 650710 <_ZN12_GLOBAL__N_15soundE>
  40442c:	48 89 c7             	mov    %rax,%rdi
  40442f:	e8 48 09 03 00       	callq  434d7c <_ZN5Sound13stopFootstepsEv>
  404434:	e9 df 00 00 00       	jmpq   404518 <_ZL12keyDownEvent6SDLKey+0x20e>
  404439:	48 8b 05 d8 c2 24 00 	mov    0x24c2d8(%rip),%rax        # 650718 <_ZN12_GLOBAL__N_14menuE>
  404440:	48 89 c7             	mov    %rax,%rdi
  404443:	e8 2e 24 03 00       	callq  436876 <_ZN4Menu11resumeLevelEv>
  404448:	e9 cb 00 00 00       	jmpq   404518 <_ZL12keyDownEvent6SDLKey+0x20e>
  40444d:	c7 45 fc 01 00 00 00 	movl   $0x1,-0x4(%rbp)
  404454:	e9 bf 00 00 00       	jmpq   404518 <_ZL12keyDownEvent6SDLKey+0x20e>
  404459:	c7 45 fc 02 00 00 00 	movl   $0x2,-0x4(%rbp)
  404460:	e9 b3 00 00 00       	jmpq   404518 <_ZL12keyDownEvent6SDLKey+0x20e>
  404465:	c7 45 fc 03 00 00 00 	movl   $0x3,-0x4(%rbp)
  40446c:	e9 a7 00 00 00       	jmpq   404518 <_ZL12keyDownEvent6SDLKey+0x20e>
  404471:	c7 45 fc 04 00 00 00 	movl   $0x4,-0x4(%rbp)
  404478:	e9 9b 00 00 00       	jmpq   404518 <_ZL12keyDownEvent6SDLKey+0x20e>
  40447d:	c7 45 fc 05 00 00 00 	movl   $0x5,-0x4(%rbp)
  404484:	e9 8f 00 00 00       	jmpq   404518 <_ZL12keyDownEvent6SDLKey+0x20e>
  404489:	c7 45 fc 06 00 00 00 	movl   $0x6,-0x4(%rbp)
  404490:	e9 83 00 00 00       	jmpq   404518 <_ZL12keyDownEvent6SDLKey+0x20e>
  404495:	c7 45 fc 07 00 00 00 	movl   $0x7,-0x4(%rbp)
  40449c:	eb 7a                	jmp    404518 <_ZL12keyDownEvent6SDLKey+0x20e>
  40449e:	c7 45 fc 08 00 00 00 	movl   $0x8,-0x4(%rbp)
  4044a5:	eb 71                	jmp    404518 <_ZL12keyDownEvent6SDLKey+0x20e>
  4044a7:	c7 45 fc 09 00 00 00 	movl   $0x9,-0x4(%rbp)
  4044ae:	eb 68                	jmp    404518 <_ZL12keyDownEvent6SDLKey+0x20e>
  4044b0:	c7 45 fc 0a 00 00 00 	movl   $0xa,-0x4(%rbp)
  4044b7:	eb 5f                	jmp    404518 <_ZL12keyDownEvent6SDLKey+0x20e>
  4044b9:	c7 45 fc 0b 00 00 00 	movl   $0xb,-0x4(%rbp)
  4044c0:	eb 56                	jmp    404518 <_ZL12keyDownEvent6SDLKey+0x20e>
  4044c2:	c7 45 fc 0c 00 00 00 	movl   $0xc,-0x4(%rbp)
  4044c9:	eb 4d                	jmp    404518 <_ZL12keyDownEvent6SDLKey+0x20e>
  4044cb:	48 8b 05 26 c2 24 00 	mov    0x24c226(%rip),%rax        # 6506f8 <_ZN12_GLOBAL__N_15levelE>
  4044d2:	48 8b 80 68 01 00 00 	mov    0x168(%rax),%rax
  4044d9:	48 89 c7             	mov    %rax,%rdi
  4044dc:	e8 49 b1 02 00       	callq  42f62a <_ZN5Torch6toggleEv>
  4044e1:	48 8b 05 10 c2 24 00 	mov    0x24c210(%rip),%rax        # 6506f8 <_ZN12_GLOBAL__N_15levelE>
  4044e8:	48 8b 80 68 01 00 00 	mov    0x168(%rax),%rax
  4044ef:	0f b6 40 04          	movzbl 0x4(%rax),%eax
  4044f3:	84 c0                	test   %al,%al
  4044f5:	74 11                	je     404508 <_ZL12keyDownEvent6SDLKey+0x1fe>
  4044f7:	48 8b 05 12 c2 24 00 	mov    0x24c212(%rip),%rax        # 650710 <_ZN12_GLOBAL__N_15soundE>
  4044fe:	48 89 c7             	mov    %rax,%rdi
  404501:	e8 6e 06 03 00       	callq  434b74 <_ZN5Sound9playTorchEv>
  404506:	eb 0f                	jmp    404517 <_ZL12keyDownEvent6SDLKey+0x20d>
  404508:	48 8b 05 01 c2 24 00 	mov    0x24c201(%rip),%rax        # 650710 <_ZN12_GLOBAL__N_15soundE>
  40450f:	48 89 c7             	mov    %rax,%rdi
  404512:	e8 19 07 03 00       	callq  434c30 <_ZN5Sound9stopTorchEv>
  404517:	90                   	nop
  404518:	83 7d fc 00          	cmpl   $0x0,-0x4(%rbp)
  40451c:	0f 84 a4 00 00 00    	je     4045c6 <_ZL12keyDownEvent6SDLKey+0x2bc>
  404522:	48 8b 05 cf c1 24 00 	mov    0x24c1cf(%rip),%rax        # 6506f8 <_ZN12_GLOBAL__N_15levelE>
  404529:	48 89 c7             	mov    %rax,%rdi
  40452c:	e8 eb 0e 00 00       	callq  40541c <_ZNKSt6vectorIP5SpellSaIS1_EE4sizeEv>
  404531:	48 89 c2             	mov    %rax,%rdx
  404534:	8b 45 fc             	mov    -0x4(%rbp),%eax
  404537:	48 39 c2             	cmp    %rax,%rdx
  40453a:	72 46                	jb     404582 <_ZL12keyDownEvent6SDLKey+0x278>
  40453c:	48 8b 05 b5 c1 24 00 	mov    0x24c1b5(%rip),%rax        # 6506f8 <_ZN12_GLOBAL__N_15levelE>
  404543:	48 89 c7             	mov    %rax,%rdi
  404546:	e8 d1 0e 00 00       	callq  40541c <_ZNKSt6vectorIP5SpellSaIS1_EE4sizeEv>
  40454b:	48 89 c2             	mov    %rax,%rdx
  40454e:	8b 45 fc             	mov    -0x4(%rbp),%eax
  404551:	48 29 c2             	sub    %rax,%rdx
  404554:	48 89 d0             	mov    %rdx,%rax
  404557:	48 8b 15 9a c1 24 00 	mov    0x24c19a(%rip),%rdx        # 6506f8 <_ZN12_GLOBAL__N_15levelE>
  40455e:	48 89 c6             	mov    %rax,%rsi
  404561:	48 89 d7             	mov    %rdx,%rdi
  404564:	e8 d9 0e 00 00       	callq  405442 <_ZNSt6vectorIP5SpellSaIS1_EEixEm>
  404569:	48 8b 00             	mov    (%rax),%rax
  40456c:	48 89 c7             	mov    %rax,%rdi
  40456f:	e8 fa ab 01 00       	callq  41f16e <_ZN5Spell8isCastedEv>
  404574:	83 f0 01             	xor    $0x1,%eax
  404577:	84 c0                	test   %al,%al
  404579:	74 07                	je     404582 <_ZL12keyDownEvent6SDLKey+0x278>
  40457b:	b8 01 00 00 00       	mov    $0x1,%eax
  404580:	eb 05                	jmp    404587 <_ZL12keyDownEvent6SDLKey+0x27d>
  404582:	b8 00 00 00 00       	mov    $0x0,%eax
  404587:	84 c0                	test   %al,%al
  404589:	74 3b                	je     4045c6 <_ZL12keyDownEvent6SDLKey+0x2bc>
  40458b:	48 8b 05 66 c1 24 00 	mov    0x24c166(%rip),%rax        # 6506f8 <_ZN12_GLOBAL__N_15levelE>
  404592:	48 89 c7             	mov    %rax,%rdi
  404595:	e8 82 0e 00 00       	callq  40541c <_ZNKSt6vectorIP5SpellSaIS1_EE4sizeEv>
  40459a:	48 89 c2             	mov    %rax,%rdx
  40459d:	8b 45 fc             	mov    -0x4(%rbp),%eax
  4045a0:	48 29 c2             	sub    %rax,%rdx
  4045a3:	48 89 d0             	mov    %rdx,%rax
  4045a6:	48 8b 15 4b c1 24 00 	mov    0x24c14b(%rip),%rdx        # 6506f8 <_ZN12_GLOBAL__N_15levelE>
  4045ad:	48 89 c6             	mov    %rax,%rsi
  4045b0:	48 89 d7             	mov    %rdx,%rdi
  4045b3:	e8 8a 0e 00 00       	callq  405442 <_ZNSt6vectorIP5SpellSaIS1_EEixEm>
  4045b8:	48 8b 00             	mov    (%rax),%rax
  4045bb:	48 89 c7             	mov    %rax,%rdi
  4045be:	e8 bd ab 01 00       	callq  41f180 <_ZN5Spell4castEv>
  4045c3:	eb 01                	jmp    4045c6 <_ZL12keyDownEvent6SDLKey+0x2bc>
  4045c5:	90                   	nop
  4045c6:	c9                   	leaveq 
  4045c7:	c3                   	retq   

00000000004045c8 <_ZL15handleSDLEventsv>:
  4045c8:	55                   	push   %rbp
  4045c9:	48 89 e5             	mov    %rsp,%rbp
  4045cc:	53                   	push   %rbx
  4045cd:	48 83 ec 28          	sub    $0x28,%rsp
  4045d1:	48 8d 45 d0          	lea    -0x30(%rbp),%rax
  4045d5:	48 89 c7             	mov    %rax,%rdi
  4045d8:	e8 f3 f1 ff ff       	callq  4037d0 <SDL_PollEvent@plt>
  4045dd:	85 c0                	test   %eax,%eax
  4045df:	0f 95 c0             	setne  %al
  4045e2:	84 c0                	test   %al,%al
  4045e4:	0f 84 d2 01 00 00    	je     4047bc <_ZL15handleSDLEventsv+0x1f4>
  4045ea:	0f b6 45 d0          	movzbl -0x30(%rbp),%eax
  4045ee:	0f b6 c0             	movzbl %al,%eax
  4045f1:	83 f8 10             	cmp    $0x10,%eax
  4045f4:	77 db                	ja     4045d1 <_ZL15handleSDLEventsv+0x9>
  4045f6:	89 c0                	mov    %eax,%eax
  4045f8:	48 8d 14 85 00 00 00 	lea    0x0(,%rax,4),%rdx
  4045ff:	00 
  404600:	48 8d 05 bd 32 03 00 	lea    0x332bd(%rip),%rax        # 4378c4 <_ZL3Sin+0x5c4>
  404607:	8b 04 02             	mov    (%rdx,%rax,1),%eax
  40460a:	48 63 d0             	movslq %eax,%rdx
  40460d:	48 8d 05 b0 32 03 00 	lea    0x332b0(%rip),%rax        # 4378c4 <_ZL3Sin+0x5c4>
  404614:	48 01 d0             	add    %rdx,%rax
  404617:	ff e0                	jmpq   *%rax
  404619:	48 8b 05 f8 c0 24 00 	mov    0x24c0f8(%rip),%rax        # 650718 <_ZN12_GLOBAL__N_14menuE>
  404620:	c6 40 04 00          	movb   $0x0,0x4(%rax)
  404624:	e9 8e 01 00 00       	jmpq   4047b7 <_ZL15handleSDLEventsv+0x1ef>
  404629:	8b 45 d8             	mov    -0x28(%rbp),%eax
  40462c:	89 c7                	mov    %eax,%edi
  40462e:	e8 d7 fc ff ff       	callq  40430a <_ZL12keyDownEvent6SDLKey>
  404633:	e9 7f 01 00 00       	jmpq   4047b7 <_ZL15handleSDLEventsv+0x1ef>
  404638:	8b 45 d8             	mov    -0x28(%rbp),%eax
  40463b:	89 c7                	mov    %eax,%edi
  40463d:	e8 a9 fc ff ff       	callq  4042eb <_ZL10keyUpEvent6SDLKey>
  404642:	e9 70 01 00 00       	jmpq   4047b7 <_ZL15handleSDLEventsv+0x1ef>
  404647:	48 8b 05 ca c0 24 00 	mov    0x24c0ca(%rip),%rax        # 650718 <_ZN12_GLOBAL__N_14menuE>
  40464e:	48 89 c7             	mov    %rax,%rdi
  404651:	e8 44 15 03 00       	callq  435b9a <_ZN4Menu8isActiveEv>
  404656:	84 c0                	test   %al,%al
  404658:	74 14                	je     40466e <_ZL15handleSDLEventsv+0xa6>
  40465a:	48 8b 05 b7 c0 24 00 	mov    0x24c0b7(%rip),%rax        # 650718 <_ZN12_GLOBAL__N_14menuE>
  404661:	48 89 c7             	mov    %rax,%rdi
  404664:	e8 ff 1f 03 00       	callq  436668 <_ZN4Menu11mouse_clickEv>
  404669:	e9 42 01 00 00       	jmpq   4047b0 <_ZL15handleSDLEventsv+0x1e8>
  40466e:	c6 05 6b c0 24 00 01 	movb   $0x1,0x24c06b(%rip)        # 6506e0 <_ZN12_GLOBAL__N_17pickingE>
  404675:	0f b7 45 d4          	movzwl -0x2c(%rbp),%eax
  404679:	0f b7 c0             	movzwl %ax,%eax
  40467c:	89 05 62 c0 24 00    	mov    %eax,0x24c062(%rip)        # 6506e4 <_ZN12_GLOBAL__N_15pickXE>
  404682:	0f b7 45 d6          	movzwl -0x2a(%rbp),%eax
  404686:	0f b7 c0             	movzwl %ax,%eax
  404689:	89 05 59 c0 24 00    	mov    %eax,0x24c059(%rip)        # 6506e8 <_ZN12_GLOBAL__N_15pickYE>
  40468f:	0f b6 45 d2          	movzbl -0x2e(%rbp),%eax
  404693:	3c 01                	cmp    $0x1,%al
  404695:	75 0f                	jne    4046a6 <_ZL15handleSDLEventsv+0xde>
  404697:	c7 05 3b c0 24 00 00 	movl   $0x0,0x24c03b(%rip)        # 6506dc <_ZN12_GLOBAL__N_18pickmodeE>
  40469e:	00 00 00 
  4046a1:	e9 0a 01 00 00       	jmpq   4047b0 <_ZL15handleSDLEventsv+0x1e8>
  4046a6:	0f b6 45 d2          	movzbl -0x2e(%rbp),%eax
  4046aa:	3c 02                	cmp    $0x2,%al
  4046ac:	75 0f                	jne    4046bd <_ZL15handleSDLEventsv+0xf5>
  4046ae:	c7 05 24 c0 24 00 01 	movl   $0x1,0x24c024(%rip)        # 6506dc <_ZN12_GLOBAL__N_18pickmodeE>
  4046b5:	00 00 00 
  4046b8:	e9 f3 00 00 00       	jmpq   4047b0 <_ZL15handleSDLEventsv+0x1e8>
  4046bd:	0f b6 45 d2          	movzbl -0x2e(%rbp),%eax
  4046c1:	3c 03                	cmp    $0x3,%al
  4046c3:	0f 85 e7 00 00 00    	jne    4047b0 <_ZL15handleSDLEventsv+0x1e8>
  4046c9:	c7 05 09 c0 24 00 02 	movl   $0x2,0x24c009(%rip)        # 6506dc <_ZN12_GLOBAL__N_18pickmodeE>
  4046d0:	00 00 00 
  4046d3:	e9 d8 00 00 00       	jmpq   4047b0 <_ZL15handleSDLEventsv+0x1e8>
  4046d8:	8b 45 d4             	mov    -0x2c(%rbp),%eax
  4046db:	89 05 3f be 24 00    	mov    %eax,0x24be3f(%rip)        # 650520 <_ZN12_GLOBAL__N_15widthE>
  4046e1:	8b 45 d8             	mov    -0x28(%rbp),%eax
  4046e4:	89 05 3a be 24 00    	mov    %eax,0x24be3a(%rip)        # 650524 <_ZN12_GLOBAL__N_16heightE>
  4046ea:	8b 35 34 be 24 00    	mov    0x24be34(%rip),%esi        # 650524 <_ZN12_GLOBAL__N_16heightE>
  4046f0:	8b 05 2a be 24 00    	mov    0x24be2a(%rip),%eax        # 650520 <_ZN12_GLOBAL__N_15widthE>
  4046f6:	b9 12 00 00 00       	mov    $0x12,%ecx
  4046fb:	ba 00 00 00 00       	mov    $0x0,%edx
  404700:	89 c7                	mov    %eax,%edi
  404702:	e8 69 f2 ff ff       	callq  403970 <SDL_SetVideoMode@plt>
  404707:	48 85 c0             	test   %rax,%rax
  40470a:	0f 94 c0             	sete   %al
  40470d:	84 c0                	test   %al,%al
  40470f:	74 4a                	je     40475b <_ZL15handleSDLEventsv+0x193>
  404711:	48 8d 35 8c 31 03 00 	lea    0x3318c(%rip),%rsi        # 4378a4 <_ZL3Sin+0x5a4>
  404718:	48 8d 3d a1 be 24 00 	lea    0x24bea1(%rip),%rdi        # 6505c0 <_ZSt4cerr@@GLIBCXX_3.4>
  40471f:	e8 fc f2 ff ff       	callq  403a20 <_ZStlsISt11char_traitsIcEERSt13basic_ostreamIcT_ES5_PKc@plt>
  404724:	48 8d 35 95 31 03 00 	lea    0x33195(%rip),%rsi        # 4378c0 <_ZL3Sin+0x5c0>
  40472b:	48 89 c7             	mov    %rax,%rdi
  40472e:	e8 ed f2 ff ff       	callq  403a20 <_ZStlsISt11char_traitsIcEERSt13basic_ostreamIcT_ES5_PKc@plt>
  404733:	48 89 c3             	mov    %rax,%rbx
  404736:	e8 35 f1 ff ff       	callq  403870 <SDL_GetError@plt>
  40473b:	48 89 c6             	mov    %rax,%rsi
  40473e:	48 89 df             	mov    %rbx,%rdi
  404741:	e8 da f2 ff ff       	callq  403a20 <_ZStlsISt11char_traitsIcEERSt13basic_ostreamIcT_ES5_PKc@plt>
  404746:	48 89 c2             	mov    %rax,%rdx
  404749:	48 8b 05 68 b8 24 00 	mov    0x24b868(%rip),%rax        # 64ffb8 <_ZSt4endlIcSt11char_traitsIcEERSt13basic_ostreamIT_T0_ES6_@GLIBCXX_3.4>
  404750:	48 89 c6             	mov    %rax,%rsi
  404753:	48 89 d7             	mov    %rdx,%rdi
  404756:	e8 45 f3 ff ff       	callq  403aa0 <_ZNSolsEPFRSoS_E@plt>
  40475b:	8b 15 c3 bd 24 00    	mov    0x24bdc3(%rip),%edx        # 650524 <_ZN12_GLOBAL__N_16heightE>
  404761:	8b 05 b9 bd 24 00    	mov    0x24bdb9(%rip),%eax        # 650520 <_ZN12_GLOBAL__N_15widthE>
  404767:	89 d1                	mov    %edx,%ecx
  404769:	89 c2                	mov    %eax,%edx
  40476b:	be 00 00 00 00       	mov    $0x0,%esi
  404770:	bf 00 00 00 00       	mov    $0x0,%edi
  404775:	e8 96 ee ff ff       	callq  403610 <glViewport@plt>
  40477a:	eb 3b                	jmp    4047b7 <_ZL15handleSDLEventsv+0x1ef>
  40477c:	48 8b 05 95 bf 24 00 	mov    0x24bf95(%rip),%rax        # 650718 <_ZN12_GLOBAL__N_14menuE>
  404783:	48 89 c7             	mov    %rax,%rdi
  404786:	e8 0f 14 03 00       	callq  435b9a <_ZN4Menu8isActiveEv>
  40478b:	84 c0                	test   %al,%al
  40478d:	74 27                	je     4047b6 <_ZL15handleSDLEventsv+0x1ee>
  40478f:	48 8b 05 82 bf 24 00 	mov    0x24bf82(%rip),%rax        # 650718 <_ZN12_GLOBAL__N_14menuE>
  404796:	0f b7 55 d6          	movzwl -0x2a(%rbp),%edx
  40479a:	0f b7 d2             	movzwl %dx,%edx
  40479d:	0f b7 4d d4          	movzwl -0x2c(%rbp),%ecx
  4047a1:	0f b7 c9             	movzwl %cx,%ecx
  4047a4:	89 ce                	mov    %ecx,%esi
  4047a6:	48 89 c7             	mov    %rax,%rdi
  4047a9:	e8 78 1c 03 00       	callq  436426 <_ZN4Menu10mouse_moveEii>
  4047ae:	eb 06                	jmp    4047b6 <_ZL15handleSDLEventsv+0x1ee>
  4047b0:	90                   	nop
  4047b1:	e9 1b fe ff ff       	jmpq   4045d1 <_ZL15handleSDLEventsv+0x9>
  4047b6:	90                   	nop
  4047b7:	e9 15 fe ff ff       	jmpq   4045d1 <_ZL15handleSDLEventsv+0x9>
  4047bc:	90                   	nop
  4047bd:	48 83 c4 28          	add    $0x28,%rsp
  4047c1:	5b                   	pop    %rbx
  4047c2:	5d                   	pop    %rbp
  4047c3:	c3                   	retq   

00000000004047c4 <_ZL8mainLoopv>:
  4047c4:	55                   	push   %rbp
  4047c5:	48 89 e5             	mov    %rsp,%rbp
  4047c8:	48 83 ec 50          	sub    $0x50,%rsp
  4047cc:	e8 9f f2 ff ff       	callq  403a70 <SDL_GetTicks@plt>
  4047d1:	89 45 f8             	mov    %eax,-0x8(%rbp)
  4047d4:	8b 45 f8             	mov    -0x8(%rbp),%eax
  4047d7:	89 45 fc             	mov    %eax,-0x4(%rbp)
  4047da:	48 8b 05 37 bf 24 00 	mov    0x24bf37(%rip),%rax        # 650718 <_ZN12_GLOBAL__N_14menuE>
  4047e1:	0f b6 40 04          	movzbl 0x4(%rax),%eax
  4047e5:	84 c0                	test   %al,%al
  4047e7:	0f 84 71 05 00 00    	je     404d5e <_ZL8mainLoopv+0x59a>
  4047ed:	e8 7e f2 ff ff       	callq  403a70 <SDL_GetTicks@plt>
  4047f2:	89 45 f4             	mov    %eax,-0xc(%rbp)
  4047f5:	f3 0f 10 1d 0f 32 03 	movss  0x3320f(%rip),%xmm3        # 437a0c <_ZZL4initvE19__PRETTY_FUNCTION__+0xc>
  4047fc:	00 
  4047fd:	66 0f ef d2          	pxor   %xmm2,%xmm2
  404801:	66 0f ef c9          	pxor   %xmm1,%xmm1
  404805:	66 0f ef c0          	pxor   %xmm0,%xmm0
  404809:	e8 92 f4 ff ff       	callq  403ca0 <glClearColor@plt>
  40480e:	bf 00 45 00 00       	mov    $0x4500,%edi
  404813:	e8 d8 ed ff ff       	callq  4035f0 <glClear@plt>
  404818:	48 8b 05 f9 be 24 00 	mov    0x24bef9(%rip),%rax        # 650718 <_ZN12_GLOBAL__N_14menuE>
  40481f:	48 89 c7             	mov    %rax,%rdi
  404822:	e8 73 13 03 00       	callq  435b9a <_ZN4Menu8isActiveEv>
  404827:	84 c0                	test   %al,%al
  404829:	74 22                	je     40484d <_ZL8mainLoopv+0x89>
  40482b:	48 8b 05 e6 be 24 00 	mov    0x24bee6(%rip),%rax        # 650718 <_ZN12_GLOBAL__N_14menuE>
  404832:	8b 15 ec bc 24 00    	mov    0x24bcec(%rip),%edx        # 650524 <_ZN12_GLOBAL__N_16heightE>
  404838:	8b 0d e2 bc 24 00    	mov    0x24bce2(%rip),%ecx        # 650520 <_ZN12_GLOBAL__N_15widthE>
  40483e:	89 ce                	mov    %ecx,%esi
  404840:	48 89 c7             	mov    %rax,%rdi
  404843:	e8 78 13 03 00       	callq  435bc0 <_ZN4Menu6renderEii>
  404848:	e9 31 04 00 00       	jmpq   404c7e <_ZL8mainLoopv+0x4ba>
  40484d:	e8 fe f4 ff ff       	callq  403d50 <glPushMatrix@plt>
  404852:	48 8b 05 97 be 24 00 	mov    0x24be97(%rip),%rax        # 6506f0 <_ZN12_GLOBAL__N_16cameraE>
  404859:	8b 40 10             	mov    0x10(%rax),%eax
  40485c:	ba 68 01 00 00       	mov    $0x168,%edx
  404861:	29 c2                	sub    %eax,%edx
  404863:	89 d0                	mov    %edx,%eax
  404865:	f3 0f 2a c0          	cvtsi2ss %eax,%xmm0
  404869:	66 0f ef db          	pxor   %xmm3,%xmm3
  40486d:	66 0f ef d2          	pxor   %xmm2,%xmm2
  404871:	f3 0f 10 0d 93 31 03 	movss  0x33193(%rip),%xmm1        # 437a0c <_ZZL4initvE19__PRETTY_FUNCTION__+0xc>
  404878:	00 
  404879:	e8 42 f5 ff ff       	callq  403dc0 <glRotatef@plt>
  40487e:	48 8b 05 6b be 24 00 	mov    0x24be6b(%rip),%rax        # 6506f0 <_ZN12_GLOBAL__N_16cameraE>
  404885:	8b 40 14             	mov    0x14(%rax),%eax
  404888:	ba 68 01 00 00       	mov    $0x168,%edx
  40488d:	29 c2                	sub    %eax,%edx
  40488f:	89 d0                	mov    %edx,%eax
  404891:	f3 0f 2a c0          	cvtsi2ss %eax,%xmm0
  404895:	66 0f ef db          	pxor   %xmm3,%xmm3
  404899:	f3 0f 10 15 6b 31 03 	movss  0x3316b(%rip),%xmm2        # 437a0c <_ZZL4initvE19__PRETTY_FUNCTION__+0xc>
  4048a0:	00 
  4048a1:	66 0f ef c9          	pxor   %xmm1,%xmm1
  4048a5:	e8 16 f5 ff ff       	callq  403dc0 <glRotatef@plt>
  4048aa:	48 8b 05 3f be 24 00 	mov    0x24be3f(%rip),%rax        # 6506f0 <_ZN12_GLOBAL__N_16cameraE>
  4048b1:	f3 0f 10 48 0c       	movss  0xc(%rax),%xmm1
  4048b6:	48 8b 05 33 be 24 00 	mov    0x24be33(%rip),%rax        # 6506f0 <_ZN12_GLOBAL__N_16cameraE>
  4048bd:	f3 0f 10 40 08       	movss  0x8(%rax),%xmm0
  4048c2:	48 8b 05 27 be 24 00 	mov    0x24be27(%rip),%rax        # 6506f0 <_ZN12_GLOBAL__N_16cameraE>
  4048c9:	8b 40 04             	mov    0x4(%rax),%eax
  4048cc:	0f 28 d1             	movaps %xmm1,%xmm2
  4048cf:	0f 28 c8             	movaps %xmm0,%xmm1
  4048d2:	89 45 bc             	mov    %eax,-0x44(%rbp)
  4048d5:	f3 0f 10 45 bc       	movss  -0x44(%rbp),%xmm0
  4048da:	e8 21 f4 ff ff       	callq  403d00 <glTranslatef@plt>
  4048df:	0f b6 05 fa bd 24 00 	movzbl 0x24bdfa(%rip),%eax        # 6506e0 <_ZN12_GLOBAL__N_17pickingE>
  4048e6:	84 c0                	test   %al,%al
  4048e8:	0f 84 d3 00 00 00    	je     4049c1 <_ZL8mainLoopv+0x1fd>
  4048ee:	48 8b 05 03 be 24 00 	mov    0x24be03(%rip),%rax        # 6506f8 <_ZN12_GLOBAL__N_15levelE>
  4048f5:	be 01 00 00 00       	mov    $0x1,%esi
  4048fa:	48 89 c7             	mov    %rax,%rdi
  4048fd:	e8 fc 03 02 00       	callq  424cfe <_ZN5Level6renderE10RenderMode>
  404902:	48 8b 05 ff bd 24 00 	mov    0x24bdff(%rip),%rax        # 650708 <_ZN12_GLOBAL__N_13hudE>
  404909:	8b 15 15 bc 24 00    	mov    0x24bc15(%rip),%edx        # 650524 <_ZN12_GLOBAL__N_16heightE>
  40490f:	f3 0f 2a ca          	cvtsi2ss %edx,%xmm1
  404913:	8b 15 07 bc 24 00    	mov    0x24bc07(%rip),%edx        # 650520 <_ZN12_GLOBAL__N_15widthE>
  404919:	f3 0f 2a c2          	cvtsi2ss %edx,%xmm0
  40491d:	be 01 00 00 00       	mov    $0x1,%esi
  404922:	48 89 c7             	mov    %rax,%rdi
  404925:	e8 b2 96 02 00       	callq  42dfdc <_ZN3Hud6renderE10RenderModeff>
  40492a:	48 8d 45 d0          	lea    -0x30(%rbp),%rax
  40492e:	48 89 c6             	mov    %rax,%rsi
  404931:	bf a2 0b 00 00       	mov    $0xba2,%edi
  404936:	e8 85 f0 ff ff       	callq  4039c0 <glGetIntegerv@plt>
  40493b:	8b 55 dc             	mov    -0x24(%rbp),%edx
  40493e:	8b 05 a4 bd 24 00    	mov    0x24bda4(%rip),%eax        # 6506e8 <_ZN12_GLOBAL__N_15pickYE>
  404944:	89 d6                	mov    %edx,%esi
  404946:	29 c6                	sub    %eax,%esi
  404948:	8b 05 96 bd 24 00    	mov    0x24bd96(%rip),%eax        # 6506e4 <_ZN12_GLOBAL__N_15pickXE>
  40494e:	48 83 ec 08          	sub    $0x8,%rsp
  404952:	48 8d 55 cd          	lea    -0x33(%rbp),%rdx
  404956:	52                   	push   %rdx
  404957:	41 b9 01 14 00 00    	mov    $0x1401,%r9d
  40495d:	41 b8 07 19 00 00    	mov    $0x1907,%r8d
  404963:	b9 01 00 00 00       	mov    $0x1,%ecx
  404968:	ba 01 00 00 00       	mov    $0x1,%edx
  40496d:	89 c7                	mov    %eax,%edi
  40496f:	e8 9c ed ff ff       	callq  403710 <glReadPixels@plt>
  404974:	48 83 c4 10          	add    $0x10,%rsp
  404978:	48 8b 05 79 bd 24 00 	mov    0x24bd79(%rip),%rax        # 6506f8 <_ZN12_GLOBAL__N_15levelE>
  40497f:	8b 15 57 bd 24 00    	mov    0x24bd57(%rip),%edx        # 6506dc <_ZN12_GLOBAL__N_18pickmodeE>
  404985:	0f b6 4d cd          	movzbl -0x33(%rbp),%ecx
  404989:	0f b6 c9             	movzbl %cl,%ecx
  40498c:	89 ce                	mov    %ecx,%esi
  40498e:	48 89 c7             	mov    %rax,%rdi
  404991:	e8 6a 1f 02 00       	callq  426900 <_ZN5Level4pickEi8PickMode>
  404996:	48 8b 05 6b bd 24 00 	mov    0x24bd6b(%rip),%rax        # 650708 <_ZN12_GLOBAL__N_13hudE>
  40499d:	8b 15 39 bd 24 00    	mov    0x24bd39(%rip),%edx        # 6506dc <_ZN12_GLOBAL__N_18pickmodeE>
  4049a3:	0f b6 4d cd          	movzbl -0x33(%rbp),%ecx
  4049a7:	0f b6 c9             	movzbl %cl,%ecx
  4049aa:	89 ce                	mov    %ecx,%esi
  4049ac:	48 89 c7             	mov    %rax,%rdi
  4049af:	e8 00 aa 02 00       	callq  42f3b4 <_ZN3Hud4pickEi8PickMode>
  4049b4:	c6 05 25 bd 24 00 00 	movb   $0x0,0x24bd25(%rip)        # 6506e0 <_ZN12_GLOBAL__N_17pickingE>
  4049bb:	90                   	nop
  4049bc:	e9 98 03 00 00       	jmpq   404d59 <_ZL8mainLoopv+0x595>
  4049c1:	48 8b 05 30 bd 24 00 	mov    0x24bd30(%rip),%rax        # 6506f8 <_ZN12_GLOBAL__N_15levelE>
  4049c8:	48 89 c7             	mov    %rax,%rdi
  4049cb:	e8 68 1b 02 00       	callq  426538 <_ZN5Level7animateEv>
  4049d0:	0f b6 05 51 bb 24 00 	movzbl 0x24bb51(%rip),%eax        # 650528 <_ZN12_GLOBAL__N_19shadowingE>
  4049d7:	84 c0                	test   %al,%al
  4049d9:	0f 84 54 02 00 00    	je     404c33 <_ZL8mainLoopv+0x46f>
  4049df:	48 8b 05 12 bd 24 00 	mov    0x24bd12(%rip),%rax        # 6506f8 <_ZN12_GLOBAL__N_15levelE>
  4049e6:	be 00 00 00 00       	mov    $0x0,%esi
  4049eb:	48 89 c7             	mov    %rax,%rdi
  4049ee:	e8 0b 03 02 00       	callq  424cfe <_ZN5Level6renderE10RenderMode>
  4049f3:	b9 00 00 00 00       	mov    $0x0,%ecx
  4049f8:	ba 00 00 00 00       	mov    $0x0,%edx
  4049fd:	be 00 00 00 00       	mov    $0x0,%esi
  404a02:	bf 00 00 00 00       	mov    $0x0,%edi
  404a07:	e8 b4 eb ff ff       	callq  4035c0 <glColorMask@plt>
  404a0c:	bf 90 0b 00 00       	mov    $0xb90,%edi
  404a11:	e8 7a ef ff ff       	callq  403990 <glEnable@plt>
  404a16:	bf 00 00 00 00       	mov    $0x0,%edi
  404a1b:	e8 90 ed ff ff       	callq  4037b0 <glDepthMask@plt>
  404a20:	ba ff ff ff ff       	mov    $0xffffffff,%edx
  404a25:	be 01 00 00 00       	mov    $0x1,%esi
  404a2a:	bf 07 02 00 00       	mov    $0x207,%edi
  404a2f:	e8 2c f0 ff ff       	callq  403a60 <glStencilFunc@plt>
  404a34:	ba 00 1e 00 00       	mov    $0x1e00,%edx
  404a39:	be 02 1e 00 00       	mov    $0x1e02,%esi
  404a3e:	bf 00 1e 00 00       	mov    $0x1e00,%edi
  404a43:	e8 e8 f0 ff ff       	callq  403b30 <glStencilOp@plt>
  404a48:	bf 04 04 00 00       	mov    $0x404,%edi
  404a4d:	e8 5e f1 ff ff       	callq  403bb0 <glCullFace@plt>
  404a52:	48 8b 05 9f bc 24 00 	mov    0x24bc9f(%rip),%rax        # 6506f8 <_ZN12_GLOBAL__N_15levelE>
  404a59:	be 02 00 00 00       	mov    $0x2,%esi
  404a5e:	48 89 c7             	mov    %rax,%rdi
  404a61:	e8 98 02 02 00       	callq  424cfe <_ZN5Level6renderE10RenderMode>
  404a66:	ba ff ff ff ff       	mov    $0xffffffff,%edx
  404a6b:	be 01 00 00 00       	mov    $0x1,%esi
  404a70:	bf 07 02 00 00       	mov    $0x207,%edi
  404a75:	e8 e6 ef ff ff       	callq  403a60 <glStencilFunc@plt>
  404a7a:	ba 00 1e 00 00       	mov    $0x1e00,%edx
  404a7f:	be 03 1e 00 00       	mov    $0x1e03,%esi
  404a84:	bf 00 1e 00 00       	mov    $0x1e00,%edi
  404a89:	e8 a2 f0 ff ff       	callq  403b30 <glStencilOp@plt>
  404a8e:	bf 05 04 00 00       	mov    $0x405,%edi
  404a93:	e8 18 f1 ff ff       	callq  403bb0 <glCullFace@plt>
  404a98:	48 8b 05 59 bc 24 00 	mov    0x24bc59(%rip),%rax        # 6506f8 <_ZN12_GLOBAL__N_15levelE>
  404a9f:	be 02 00 00 00       	mov    $0x2,%esi
  404aa4:	48 89 c7             	mov    %rax,%rdi
  404aa7:	e8 52 02 02 00       	callq  424cfe <_ZN5Level6renderE10RenderMode>
  404aac:	bf 01 00 00 00       	mov    $0x1,%edi
  404ab1:	e8 fa ec ff ff       	callq  4037b0 <glDepthMask@plt>
  404ab6:	b9 01 00 00 00       	mov    $0x1,%ecx
  404abb:	ba 01 00 00 00       	mov    $0x1,%edx
  404ac0:	be 01 00 00 00       	mov    $0x1,%esi
  404ac5:	bf 01 00 00 00       	mov    $0x1,%edi
  404aca:	e8 f1 ea ff ff       	callq  4035c0 <glColorMask@plt>
  404acf:	bf 57 0b 00 00       	mov    $0xb57,%edi
  404ad4:	e8 b7 ee ff ff       	callq  403990 <glEnable@plt>
  404ad9:	48 8d 15 e0 21 03 00 	lea    0x321e0(%rip),%rdx        # 436cc0 <_ZL5white>
  404ae0:	be 02 16 00 00       	mov    $0x1602,%esi
  404ae5:	bf 08 04 00 00       	mov    $0x408,%edi
  404aea:	e8 c1 f3 ff ff       	callq  403eb0 <glMaterialfv@plt>
  404aef:	bf 05 04 00 00       	mov    $0x405,%edi
  404af4:	e8 b7 f0 ff ff       	callq  403bb0 <glCullFace@plt>
  404af9:	bf 03 02 00 00       	mov    $0x203,%edi
  404afe:	e8 ed ec ff ff       	callq  4037f0 <glDepthFunc@plt>
  404b03:	ba 00 1e 00 00       	mov    $0x1e00,%edx
  404b08:	be 00 1e 00 00       	mov    $0x1e00,%esi
  404b0d:	bf 00 1e 00 00       	mov    $0x1e00,%edi
  404b12:	e8 19 f0 ff ff       	callq  403b30 <glStencilOp@plt>
  404b17:	ba ff 00 00 00       	mov    $0xff,%edx
  404b1c:	be 00 00 00 00       	mov    $0x0,%esi
  404b21:	bf 05 02 00 00       	mov    $0x205,%edi
  404b26:	e8 35 ef ff ff       	callq  403a60 <glStencilFunc@plt>
  404b2b:	f3 0f 10 1d dd 2e 03 	movss  0x32edd(%rip),%xmm3        # 437a10 <_ZZL4initvE19__PRETTY_FUNCTION__+0x10>
  404b32:	00 
  404b33:	66 0f ef d2          	pxor   %xmm2,%xmm2
  404b37:	66 0f ef c9          	pxor   %xmm1,%xmm1
  404b3b:	66 0f ef c0          	pxor   %xmm0,%xmm0
  404b3f:	e8 bc ed ff ff       	callq  403900 <glColor4f@plt>
  404b44:	bf e2 0b 00 00       	mov    $0xbe2,%edi
  404b49:	e8 42 ee ff ff       	callq  403990 <glEnable@plt>
  404b4e:	be 03 03 00 00       	mov    $0x303,%esi
  404b53:	bf 02 03 00 00       	mov    $0x302,%edi
  404b58:	e8 53 ed ff ff       	callq  4038b0 <glBlendFunc@plt>
  404b5d:	bf 00 17 00 00       	mov    $0x1700,%edi
  404b62:	e8 a9 f0 ff ff       	callq  403c10 <glMatrixMode@plt>
  404b67:	e8 e4 f1 ff ff       	callq  403d50 <glPushMatrix@plt>
  404b6c:	e8 2f f0 ff ff       	callq  403ba0 <glLoadIdentity@plt>
  404b71:	bf 01 17 00 00       	mov    $0x1701,%edi
  404b76:	e8 95 f0 ff ff       	callq  403c10 <glMatrixMode@plt>
  404b7b:	e8 d0 f1 ff ff       	callq  403d50 <glPushMatrix@plt>
  404b80:	e8 1b f0 ff ff       	callq  403ba0 <glLoadIdentity@plt>
  404b85:	bf 07 00 00 00       	mov    $0x7,%edi
  404b8a:	e8 41 ea ff ff       	callq  4035d0 <glBegin@plt>
  404b8f:	ba ff ff ff ff       	mov    $0xffffffff,%edx
  404b94:	be ff ff ff ff       	mov    $0xffffffff,%esi
  404b99:	bf ff ff ff ff       	mov    $0xffffffff,%edi
  404b9e:	e8 fd ec ff ff       	callq  4038a0 <glVertex3i@plt>
  404ba3:	ba ff ff ff ff       	mov    $0xffffffff,%edx
  404ba8:	be ff ff ff ff       	mov    $0xffffffff,%esi
  404bad:	bf 01 00 00 00       	mov    $0x1,%edi
  404bb2:	e8 e9 ec ff ff       	callq  4038a0 <glVertex3i@plt>
  404bb7:	ba ff ff ff ff       	mov    $0xffffffff,%edx
  404bbc:	be 01 00 00 00       	mov    $0x1,%esi
  404bc1:	bf 01 00 00 00       	mov    $0x1,%edi
  404bc6:	e8 d5 ec ff ff       	callq  4038a0 <glVertex3i@plt>
  404bcb:	ba ff ff ff ff       	mov    $0xffffffff,%edx
  404bd0:	be 01 00 00 00       	mov    $0x1,%esi
  404bd5:	bf ff ff ff ff       	mov    $0xffffffff,%edi
  404bda:	e8 c1 ec ff ff       	callq  4038a0 <glVertex3i@plt>
  404bdf:	e8 dc ef ff ff       	callq  403bc0 <glEnd@plt>
  404be4:	e8 77 f2 ff ff       	callq  403e60 <glPopMatrix@plt>
  404be9:	bf 00 17 00 00       	mov    $0x1700,%edi
  404bee:	e8 1d f0 ff ff       	callq  403c10 <glMatrixMode@plt>
  404bf3:	e8 68 f2 ff ff       	callq  403e60 <glPopMatrix@plt>
  404bf8:	f3 0f 10 1d 0c 2e 03 	movss  0x32e0c(%rip),%xmm3        # 437a0c <_ZZL4initvE19__PRETTY_FUNCTION__+0xc>
  404bff:	00 
  404c00:	f3 0f 10 15 04 2e 03 	movss  0x32e04(%rip),%xmm2        # 437a0c <_ZZL4initvE19__PRETTY_FUNCTION__+0xc>
  404c07:	00 
  404c08:	f3 0f 10 0d fc 2d 03 	movss  0x32dfc(%rip),%xmm1        # 437a0c <_ZZL4initvE19__PRETTY_FUNCTION__+0xc>
  404c0f:	00 
  404c10:	f3 0f 10 05 f4 2d 03 	movss  0x32df4(%rip),%xmm0        # 437a0c <_ZZL4initvE19__PRETTY_FUNCTION__+0xc>
  404c17:	00 
  404c18:	e8 e3 ec ff ff       	callq  403900 <glColor4f@plt>
  404c1d:	bf 01 02 00 00       	mov    $0x201,%edi
  404c22:	e8 c9 eb ff ff       	callq  4037f0 <glDepthFunc@plt>
  404c27:	bf 90 0b 00 00       	mov    $0xb90,%edi
  404c2c:	e8 cf e9 ff ff       	callq  403600 <glDisable@plt>
  404c31:	eb 14                	jmp    404c47 <_ZL8mainLoopv+0x483>
  404c33:	48 8b 05 be ba 24 00 	mov    0x24babe(%rip),%rax        # 6506f8 <_ZN12_GLOBAL__N_15levelE>
  404c3a:	be 00 00 00 00       	mov    $0x0,%esi
  404c3f:	48 89 c7             	mov    %rax,%rdi
  404c42:	e8 b7 00 02 00       	callq  424cfe <_ZN5Level6renderE10RenderMode>
  404c47:	e8 14 f2 ff ff       	callq  403e60 <glPopMatrix@plt>
  404c4c:	bf 00 05 00 00       	mov    $0x500,%edi
  404c51:	e8 9a e9 ff ff       	callq  4035f0 <glClear@plt>
  404c56:	48 8b 05 ab ba 24 00 	mov    0x24baab(%rip),%rax        # 650708 <_ZN12_GLOBAL__N_13hudE>
  404c5d:	8b 15 c1 b8 24 00    	mov    0x24b8c1(%rip),%edx        # 650524 <_ZN12_GLOBAL__N_16heightE>
  404c63:	f3 0f 2a ca          	cvtsi2ss %edx,%xmm1
  404c67:	8b 15 b3 b8 24 00    	mov    0x24b8b3(%rip),%edx        # 650520 <_ZN12_GLOBAL__N_15widthE>
  404c6d:	f3 0f 2a c2          	cvtsi2ss %edx,%xmm0
  404c71:	be 00 00 00 00       	mov    $0x0,%esi
  404c76:	48 89 c7             	mov    %rax,%rdi
  404c79:	e8 5e 93 02 00       	callq  42dfdc <_ZN3Hud6renderE10RenderModeff>
  404c7e:	e8 6d f2 ff ff       	callq  403ef0 <glFinish@plt>
  404c83:	e8 58 f1 ff ff       	callq  403de0 <SDL_GL_SwapBuffers@plt>
  404c88:	e8 c3 ea ff ff       	callq  403750 <glGetError@plt>
  404c8d:	85 c0                	test   %eax,%eax
  404c8f:	74 1f                	je     404cb0 <_ZL8mainLoopv+0x4ec>
  404c91:	48 8d 0d 58 2d 03 00 	lea    0x32d58(%rip),%rcx        # 4379f0 <_ZZL8mainLoopvE19__PRETTY_FUNCTION__>
  404c98:	ba b6 00 00 00       	mov    $0xb6,%edx
  404c9d:	48 8d 35 64 2c 03 00 	lea    0x32c64(%rip),%rsi        # 437908 <_ZL3Sin+0x608>
  404ca4:	48 8d 3d 66 2c 03 00 	lea    0x32c66(%rip),%rdi        # 437911 <_ZL3Sin+0x611>
  404cab:	e8 50 eb ff ff       	callq  403800 <__assert_fail@plt>
  404cb0:	e8 13 f9 ff ff       	callq  4045c8 <_ZL15handleSDLEventsv>
  404cb5:	e8 b6 ed ff ff       	callq  403a70 <SDL_GetTicks@plt>
  404cba:	89 45 f0             	mov    %eax,-0x10(%rbp)
  404cbd:	8b 45 f0             	mov    -0x10(%rbp),%eax
  404cc0:	2b 45 fc             	sub    -0x4(%rbp),%eax
  404cc3:	89 45 ec             	mov    %eax,-0x14(%rbp)
  404cc6:	8b 45 ec             	mov    -0x14(%rbp),%eax
  404cc9:	48 85 c0             	test   %rax,%rax
  404ccc:	78 07                	js     404cd5 <_ZL8mainLoopv+0x511>
  404cce:	f3 48 0f 2a c0       	cvtsi2ss %rax,%xmm0
  404cd3:	eb 15                	jmp    404cea <_ZL8mainLoopv+0x526>
  404cd5:	48 89 c2             	mov    %rax,%rdx
  404cd8:	48 d1 ea             	shr    %rdx
  404cdb:	83 e0 01             	and    $0x1,%eax
  404cde:	48 09 c2             	or     %rax,%rdx
  404ce1:	f3 48 0f 2a c2       	cvtsi2ss %rdx,%xmm0
  404ce6:	f3 0f 58 c0          	addss  %xmm0,%xmm0
  404cea:	f3 0f 10 0d 22 2d 03 	movss  0x32d22(%rip),%xmm1        # 437a14 <_ZZL4initvE19__PRETTY_FUNCTION__+0x14>
  404cf1:	00 
  404cf2:	0f 28 d0             	movaps %xmm0,%xmm2
  404cf5:	f3 0f 5e d1          	divss  %xmm1,%xmm2
  404cf9:	8b 45 f0             	mov    -0x10(%rbp),%eax
  404cfc:	2b 45 f8             	sub    -0x8(%rbp),%eax
  404cff:	89 c0                	mov    %eax,%eax
  404d01:	48 85 c0             	test   %rax,%rax
  404d04:	78 07                	js     404d0d <_ZL8mainLoopv+0x549>
  404d06:	f3 48 0f 2a c0       	cvtsi2ss %rax,%xmm0
  404d0b:	eb 15                	jmp    404d22 <_ZL8mainLoopv+0x55e>
  404d0d:	48 89 c2             	mov    %rax,%rdx
  404d10:	48 d1 ea             	shr    %rdx
  404d13:	83 e0 01             	and    $0x1,%eax
  404d16:	48 09 c2             	or     %rax,%rdx
  404d19:	f3 48 0f 2a c2       	cvtsi2ss %rdx,%xmm0
  404d1e:	f3 0f 58 c0          	addss  %xmm0,%xmm0
  404d22:	f3 0f 10 0d ea 2c 03 	movss  0x32cea(%rip),%xmm1        # 437a14 <_ZZL4initvE19__PRETTY_FUNCTION__+0x14>
  404d29:	00 
  404d2a:	f3 0f 5e c1          	divss  %xmm1,%xmm0
  404d2e:	0f 28 ca             	movaps %xmm2,%xmm1
  404d31:	e8 d4 f2 ff ff       	callq  40400a <_ZL9timeEventff>
  404d36:	8b 45 ec             	mov    -0x14(%rbp),%eax
  404d39:	01 45 fc             	add    %eax,-0x4(%rbp)
  404d3c:	8b 45 f0             	mov    -0x10(%rbp),%eax
  404d3f:	2b 45 f4             	sub    -0xc(%rbp),%eax
  404d42:	89 45 ec             	mov    %eax,-0x14(%rbp)
  404d45:	83 7d ec 09          	cmpl   $0x9,-0x14(%rbp)
  404d49:	0f 87 8b fa ff ff    	ja     4047da <_ZL8mainLoopv+0x16>
  404d4f:	bf 0a 00 00 00       	mov    $0xa,%edi
  404d54:	e8 07 eb ff ff       	callq  403860 <SDL_Delay@plt>
  404d59:	e9 7c fa ff ff       	jmpq   4047da <_ZL8mainLoopv+0x16>
  404d5e:	90                   	nop
  404d5f:	c9                   	leaveq 
  404d60:	c3                   	retq   

0000000000404d61 <_ZL4initv>:
  404d61:	55                   	push   %rbp
  404d62:	48 89 e5             	mov    %rsp,%rbp
  404d65:	41 54                	push   %r12
  404d67:	53                   	push   %rbx
  404d68:	48 83 ec 10          	sub    $0x10,%rsp
  404d6c:	bf a1 0b 00 00       	mov    $0xba1,%edi
  404d71:	e8 1a ec ff ff       	callq  403990 <glEnable@plt>
  404d76:	bf 57 0b 00 00       	mov    $0xb57,%edi
  404d7b:	e8 10 ec ff ff       	callq  403990 <glEnable@plt>
  404d80:	bf 71 0b 00 00       	mov    $0xb71,%edi
  404d85:	e8 06 ec ff ff       	callq  403990 <glEnable@plt>
  404d8a:	bf 50 0b 00 00       	mov    $0xb50,%edi
  404d8f:	e8 fc eb ff ff       	callq  403990 <glEnable@plt>
  404d94:	bf 01 17 00 00       	mov    $0x1701,%edi
  404d99:	e8 72 ee ff ff       	callq  403c10 <glMatrixMode@plt>
  404d9e:	e8 fd ed ff ff       	callq  403ba0 <glLoadIdentity@plt>
  404da3:	8b 05 77 b7 24 00    	mov    0x24b777(%rip),%eax        # 650520 <_ZN12_GLOBAL__N_15widthE>
  404da9:	f3 0f 2a c0          	cvtsi2ss %eax,%xmm0
  404dad:	8b 05 71 b7 24 00    	mov    0x24b771(%rip),%eax        # 650524 <_ZN12_GLOBAL__N_16heightE>
  404db3:	f3 0f 2a c8          	cvtsi2ss %eax,%xmm1
  404db7:	f3 0f 5e c1          	divss  %xmm1,%xmm0
  404dbb:	f3 0f 5a c0          	cvtss2sd %xmm0,%xmm0
  404dbf:	f2 0f 10 15 51 2c 03 	movsd  0x32c51(%rip),%xmm2        # 437a18 <_ZZL4initvE19__PRETTY_FUNCTION__+0x18>
  404dc6:	00 
  404dc7:	f2 0f 10 0d 51 2c 03 	movsd  0x32c51(%rip),%xmm1        # 437a20 <_ZZL4initvE19__PRETTY_FUNCTION__+0x20>
  404dce:	00 
  404dcf:	48 8b 05 52 2c 03 00 	mov    0x32c52(%rip),%rax        # 437a28 <_ZZL4initvE19__PRETTY_FUNCTION__+0x28>
  404dd6:	66 0f 28 da          	movapd %xmm2,%xmm3
  404dda:	66 0f 28 d1          	movapd %xmm1,%xmm2
  404dde:	66 0f 28 c8          	movapd %xmm0,%xmm1
  404de2:	48 89 45 e8          	mov    %rax,-0x18(%rbp)
  404de6:	f2 0f 10 45 e8       	movsd  -0x18(%rbp),%xmm0
  404deb:	e8 20 ed ff ff       	callq  403b10 <gluPerspective@plt>
  404df0:	bf 00 17 00 00       	mov    $0x1700,%edi
  404df5:	e8 16 ee ff ff       	callq  403c10 <glMatrixMode@plt>
  404dfa:	e8 a1 ed ff ff       	callq  403ba0 <glLoadIdentity@plt>
  404dff:	f3 0f 10 05 29 2c 03 	movss  0x32c29(%rip),%xmm0        # 437a30 <_ZZL4initvE19__PRETTY_FUNCTION__+0x30>
  404e06:	00 
  404e07:	be 01 16 00 00       	mov    $0x1601,%esi
  404e0c:	bf 08 04 00 00       	mov    $0x408,%edi
  404e11:	e8 fa eb ff ff       	callq  403a10 <glMaterialf@plt>
  404e16:	48 8d 15 a3 1e 03 00 	lea    0x31ea3(%rip),%rdx        # 436cc0 <_ZL5white>
  404e1d:	be 02 16 00 00       	mov    $0x1602,%esi
  404e22:	bf 08 04 00 00       	mov    $0x408,%edi
  404e27:	e8 84 f0 ff ff       	callq  403eb0 <glMaterialfv@plt>
  404e2c:	bf 44 0b 00 00       	mov    $0xb44,%edi
  404e31:	e8 5a eb ff ff       	callq  403990 <glEnable@plt>
  404e36:	bf 05 04 00 00       	mov    $0x405,%edi
  404e3b:	e8 70 ed ff ff       	callq  403bb0 <glCullFace@plt>
  404e40:	bf 48 00 00 00       	mov    $0x48,%edi
  404e45:	e8 f6 eb ff ff       	callq  403a40 <_Znwm@plt>
  404e4a:	48 89 c3             	mov    %rax,%rbx
  404e4d:	48 89 df             	mov    %rbx,%rdi
  404e50:	e8 37 f8 02 00       	callq  43468c <_ZN5SoundC1Ev>
  404e55:	48 89 1d b4 b8 24 00 	mov    %rbx,0x24b8b4(%rip)        # 650710 <_ZN12_GLOBAL__N_15soundE>
  404e5c:	bf b8 00 00 00       	mov    $0xb8,%edi
  404e61:	e8 da eb ff ff       	callq  403a40 <_Znwm@plt>
  404e66:	48 89 c3             	mov    %rax,%rbx
  404e69:	4c 8d 0d a0 b8 24 00 	lea    0x24b8a0(%rip),%r9        # 650710 <_ZN12_GLOBAL__N_15soundE>
  404e70:	4c 8d 05 91 b8 24 00 	lea    0x24b891(%rip),%r8        # 650708 <_ZN12_GLOBAL__N_13hudE>
  404e77:	48 8d 0d 82 b8 24 00 	lea    0x24b882(%rip),%rcx        # 650700 <_ZN12_GLOBAL__N_16playerE>
  404e7e:	48 8d 15 73 b8 24 00 	lea    0x24b873(%rip),%rdx        # 6506f8 <_ZN12_GLOBAL__N_15levelE>
  404e85:	48 8d 35 64 b8 24 00 	lea    0x24b864(%rip),%rsi        # 6506f0 <_ZN12_GLOBAL__N_16cameraE>
  404e8c:	48 89 df             	mov    %rbx,%rdi
  404e8f:	e8 06 00 03 00       	callq  434e9a <_ZN4MenuC1EPP6CameraPP5LevelPP6PlayerPP3HudPP5Sound>
  404e94:	48 89 1d 7d b8 24 00 	mov    %rbx,0x24b87d(%rip)        # 650718 <_ZN12_GLOBAL__N_14menuE>
  404e9b:	e8 b0 e8 ff ff       	callq  403750 <glGetError@plt>
  404ea0:	85 c0                	test   %eax,%eax
  404ea2:	74 55                	je     404ef9 <_ZL4initv+0x198>
  404ea4:	48 8d 0d 55 2b 03 00 	lea    0x32b55(%rip),%rcx        # 437a00 <_ZZL4initvE19__PRETTY_FUNCTION__>
  404eab:	ba ec 00 00 00       	mov    $0xec,%edx
  404eb0:	48 8d 35 51 2a 03 00 	lea    0x32a51(%rip),%rsi        # 437908 <_ZL3Sin+0x608>
  404eb7:	48 8d 3d 53 2a 03 00 	lea    0x32a53(%rip),%rdi        # 437911 <_ZL3Sin+0x611>
  404ebe:	e8 3d e9 ff ff       	callq  403800 <__assert_fail@plt>
  404ec3:	49 89 c4             	mov    %rax,%r12
  404ec6:	be 48 00 00 00       	mov    $0x48,%esi
  404ecb:	48 89 df             	mov    %rbx,%rdi
  404ece:	e8 7d eb ff ff       	callq  403a50 <_ZdlPvm@plt>
  404ed3:	4c 89 e0             	mov    %r12,%rax
  404ed6:	48 89 c7             	mov    %rax,%rdi
  404ed9:	e8 22 ef ff ff       	callq  403e00 <_Unwind_Resume@plt>
  404ede:	49 89 c4             	mov    %rax,%r12
  404ee1:	be b8 00 00 00       	mov    $0xb8,%esi
  404ee6:	48 89 df             	mov    %rbx,%rdi
  404ee9:	e8 62 eb ff ff       	callq  403a50 <_ZdlPvm@plt>
  404eee:	4c 89 e0             	mov    %r12,%rax
  404ef1:	48 89 c7             	mov    %rax,%rdi
  404ef4:	e8 07 ef ff ff       	callq  403e00 <_Unwind_Resume@plt>
  404ef9:	90                   	nop
  404efa:	48 83 c4 10          	add    $0x10,%rsp
  404efe:	5b                   	pop    %rbx
  404eff:	41 5c                	pop    %r12
  404f01:	5d                   	pop    %rbp
  404f02:	c3                   	retq   

0000000000404f03 <_Z5cleanv>:
  404f03:	55                   	push   %rbp
  404f04:	48 89 e5             	mov    %rsp,%rbp
  404f07:	53                   	push   %rbx
  404f08:	48 83 ec 08          	sub    $0x8,%rsp
  404f0c:	48 8b 1d 05 b8 24 00 	mov    0x24b805(%rip),%rbx        # 650718 <_ZN12_GLOBAL__N_14menuE>
  404f13:	48 85 db             	test   %rbx,%rbx
  404f16:	74 15                	je     404f2d <_Z5cleanv+0x2a>
  404f18:	48 89 df             	mov    %rbx,%rdi
  404f1b:	e8 92 0a 03 00       	callq  4359b2 <_ZN4MenuD1Ev>
  404f20:	be b8 00 00 00       	mov    $0xb8,%esi
  404f25:	48 89 df             	mov    %rbx,%rdi
  404f28:	e8 23 eb ff ff       	callq  403a50 <_ZdlPvm@plt>
  404f2d:	48 8b 1d dc b7 24 00 	mov    0x24b7dc(%rip),%rbx        # 650710 <_ZN12_GLOBAL__N_15soundE>
  404f34:	48 85 db             	test   %rbx,%rbx
  404f37:	74 15                	je     404f4e <_Z5cleanv+0x4b>
  404f39:	48 89 df             	mov    %rbx,%rdi
  404f3c:	e8 0b f8 02 00       	callq  43474c <_ZN5SoundD1Ev>
  404f41:	be 48 00 00 00       	mov    $0x48,%esi
  404f46:	48 89 df             	mov    %rbx,%rdi
  404f49:	e8 02 eb ff ff       	callq  403a50 <_ZdlPvm@plt>
  404f4e:	90                   	nop
  404f4f:	48 83 c4 08          	add    $0x8,%rsp
  404f53:	5b                   	pop    %rbx
  404f54:	5d                   	pop    %rbp
  404f55:	c3                   	retq   

0000000000404f56 <_Z14trimwhitespacePc>:
  404f56:	55                   	push   %rbp
  404f57:	48 89 e5             	mov    %rsp,%rbp
  404f5a:	48 83 ec 20          	sub    $0x20,%rsp
  404f5e:	48 89 7d e8          	mov    %rdi,-0x18(%rbp)
  404f62:	48 8b 45 e8          	mov    -0x18(%rbp),%rax
  404f66:	48 89 c7             	mov    %rax,%rdi
  404f69:	e8 82 e7 ff ff       	callq  4036f0 <strlen@plt>
  404f6e:	48 8d 50 ff          	lea    -0x1(%rax),%rdx
  404f72:	48 8b 45 e8          	mov    -0x18(%rbp),%rax
  404f76:	48 01 d0             	add    %rdx,%rax
  404f79:	48 89 45 f8          	mov    %rax,-0x8(%rbp)
  404f7d:	48 8b 45 f8          	mov    -0x8(%rbp),%rax
  404f81:	48 3b 45 e8          	cmp    -0x18(%rbp),%rax
  404f85:	76 1c                	jbe    404fa3 <_Z14trimwhitespacePc+0x4d>
  404f87:	48 8b 45 f8          	mov    -0x8(%rbp),%rax
  404f8b:	0f b6 00             	movzbl (%rax),%eax
  404f8e:	0f be c0             	movsbl %al,%eax
  404f91:	89 c7                	mov    %eax,%edi
  404f93:	e8 d8 e5 ff ff       	callq  403570 <isspace@plt>
  404f98:	85 c0                	test   %eax,%eax
  404f9a:	74 07                	je     404fa3 <_Z14trimwhitespacePc+0x4d>
  404f9c:	48 83 6d f8 01       	subq   $0x1,-0x8(%rbp)
  404fa1:	eb da                	jmp    404f7d <_Z14trimwhitespacePc+0x27>
  404fa3:	48 8b 45 f8          	mov    -0x8(%rbp),%rax
  404fa7:	48 83 c0 01          	add    $0x1,%rax
  404fab:	c6 00 00             	movb   $0x0,(%rax)
  404fae:	48 8b 45 e8          	mov    -0x18(%rbp),%rax
  404fb2:	c9                   	leaveq 
  404fb3:	c3                   	retq   

0000000000404fb4 <_Z12licenseerrorv>:
  404fb4:	55                   	push   %rbp
  404fb5:	48 89 e5             	mov    %rsp,%rbp
  404fb8:	48 8d 3d 71 29 03 00 	lea    0x32971(%rip),%rdi        # 437930 <_ZL3Sin+0x630>
  404fbf:	e8 2c ed ff ff       	callq  403cf0 <puts@plt>
  404fc4:	bf 01 00 00 00       	mov    $0x1,%edi
  404fc9:	e8 72 eb ff ff       	callq  403b40 <exit@plt>

0000000000404fce <main>:
  404fce:	55                   	push   %rbp
  404fcf:	48 89 e5             	mov    %rsp,%rbp
  404fd2:	53                   	push   %rbx
  404fd3:	48 81 ec 38 01 00 00 	sub    $0x138,%rsp
  404fda:	89 bd cc fe ff ff    	mov    %edi,-0x134(%rbp)
  404fe0:	48 89 b5 c0 fe ff ff 	mov    %rsi,-0x140(%rbp)
  404fe7:	48 8d 05 72 29 03 00 	lea    0x32972(%rip),%rax        # 437960 <_ZL3Sin+0x660>
  404fee:	48 89 45 e0          	mov    %rax,-0x20(%rbp)
  404ff2:	48 8b 45 e0          	mov    -0x20(%rbp),%rax
  404ff6:	48 8d 35 6f 29 03 00 	lea    0x3296f(%rip),%rsi        # 43796c <_ZL3Sin+0x66c>
  404ffd:	48 89 c7             	mov    %rax,%rdi
  405000:	e8 eb ea ff ff       	callq  403af0 <fopen@plt>
  405005:	48 89 45 d8          	mov    %rax,-0x28(%rbp)
  405009:	48 83 7d d8 00       	cmpq   $0x0,-0x28(%rbp)
  40500e:	75 16                	jne    405026 <main+0x58>
  405010:	48 8d 3d 59 29 03 00 	lea    0x32959(%rip),%rdi        # 437970 <_ZL3Sin+0x670>
  405017:	e8 d4 ec ff ff       	callq  403cf0 <puts@plt>
  40501c:	bf 01 00 00 00       	mov    $0x1,%edi
  405021:	e8 1a eb ff ff       	callq  403b40 <exit@plt>
  405026:	48 8b 55 d8          	mov    -0x28(%rbp),%rdx
  40502a:	48 8d 85 d0 fe ff ff 	lea    -0x130(%rbp),%rax
  405031:	be 00 01 00 00       	mov    $0x100,%esi
  405036:	48 89 c7             	mov    %rax,%rdi
  405039:	e8 02 ed ff ff       	callq  403d40 <fgets@plt>
  40503e:	48 8d 85 d0 fe ff ff 	lea    -0x130(%rbp),%rax
  405045:	48 89 c7             	mov    %rax,%rdi
  405048:	e8 09 ff ff ff       	callq  404f56 <_Z14trimwhitespacePc>
  40504d:	48 8b 45 d8          	mov    -0x28(%rbp),%rax
  405051:	48 89 c7             	mov    %rax,%rdi
  405054:	e8 d7 e9 ff ff       	callq  403a30 <fclose@plt>
  405059:	48 8d 85 d0 fe ff ff 	lea    -0x130(%rbp),%rax
  405060:	48 89 c6             	mov    %rax,%rsi
  405063:	48 8d 3d 39 29 03 00 	lea    0x32939(%rip),%rdi        # 4379a3 <_ZL3Sin+0x6a3>
  40506a:	b8 00 00 00 00       	mov    $0x0,%eax
  40506f:	e8 dc e4 ff ff       	callq  403550 <printf@plt>
  405074:	48 8d 85 d0 fe ff ff 	lea    -0x130(%rbp),%rax
  40507b:	48 89 c7             	mov    %rax,%rdi
  40507e:	e8 6d e6 ff ff       	callq  4036f0 <strlen@plt>
  405083:	48 83 f8 1d          	cmp    $0x1d,%rax
  405087:	74 05                	je     40508e <main+0xc0>
  405089:	e8 26 ff ff ff       	callq  404fb4 <_Z12licenseerrorv>
  40508e:	c7 45 ec 00 00 00 00 	movl   $0x0,-0x14(%rbp)
  405095:	8b 5d ec             	mov    -0x14(%rbp),%ebx
  405098:	48 8d 85 d0 fe ff ff 	lea    -0x130(%rbp),%rax
  40509f:	48 89 c7             	mov    %rax,%rdi
  4050a2:	e8 49 e6 ff ff       	callq  4036f0 <strlen@plt>
  4050a7:	48 39 c3             	cmp    %rax,%rbx
  4050aa:	73 7c                	jae    405128 <main+0x15a>
  4050ac:	83 7d ec 05          	cmpl   $0x5,-0x14(%rbp)
  4050b0:	74 50                	je     405102 <main+0x134>
  4050b2:	83 7d ec 0b          	cmpl   $0xb,-0x14(%rbp)
  4050b6:	74 4a                	je     405102 <main+0x134>
  4050b8:	83 7d ec 11          	cmpl   $0x11,-0x14(%rbp)
  4050bc:	74 44                	je     405102 <main+0x134>
  4050be:	83 7d ec 17          	cmpl   $0x17,-0x14(%rbp)
  4050c2:	74 3e                	je     405102 <main+0x134>
  4050c4:	8b 45 ec             	mov    -0x14(%rbp),%eax
  4050c7:	0f b6 84 05 d0 fe ff 	movzbl -0x130(%rbp,%rax,1),%eax
  4050ce:	ff 
  4050cf:	3c 2f                	cmp    $0x2f,%al
  4050d1:	7e 0f                	jle    4050e2 <main+0x114>
  4050d3:	8b 45 ec             	mov    -0x14(%rbp),%eax
  4050d6:	0f b6 84 05 d0 fe ff 	movzbl -0x130(%rbp,%rax,1),%eax
  4050dd:	ff 
  4050de:	3c 39                	cmp    $0x39,%al
  4050e0:	7e 39                	jle    40511b <main+0x14d>
  4050e2:	8b 45 ec             	mov    -0x14(%rbp),%eax
  4050e5:	0f b6 84 05 d0 fe ff 	movzbl -0x130(%rbp,%rax,1),%eax
  4050ec:	ff 
  4050ed:	3c 40                	cmp    $0x40,%al
  4050ef:	7e 22                	jle    405113 <main+0x145>
  4050f1:	8b 45 ec             	mov    -0x14(%rbp),%eax
  4050f4:	0f b6 84 05 d0 fe ff 	movzbl -0x130(%rbp,%rax,1),%eax
  4050fb:	ff 
  4050fc:	3c 5a                	cmp    $0x5a,%al
  4050fe:	7f 13                	jg     405113 <main+0x145>
  405100:	eb 1d                	jmp    40511f <main+0x151>
  405102:	8b 45 ec             	mov    -0x14(%rbp),%eax
  405105:	0f b6 84 05 d0 fe ff 	movzbl -0x130(%rbp,%rax,1),%eax
  40510c:	ff 
  40510d:	3c 2d                	cmp    $0x2d,%al
  40510f:	74 0d                	je     40511e <main+0x150>
  405111:	eb 01                	jmp    405114 <main+0x146>
  405113:	90                   	nop
  405114:	e8 9b fe ff ff       	callq  404fb4 <_Z12licenseerrorv>
  405119:	eb 04                	jmp    40511f <main+0x151>
  40511b:	90                   	nop
  40511c:	eb 01                	jmp    40511f <main+0x151>
  40511e:	90                   	nop
  40511f:	83 45 ec 01          	addl   $0x1,-0x14(%rbp)
  405123:	e9 6d ff ff ff       	jmpq   405095 <main+0xc7>
  405128:	0f b6 95 d0 fe ff ff 	movzbl -0x130(%rbp),%edx
  40512f:	0f b6 85 d1 fe ff ff 	movzbl -0x12f(%rbp),%eax
  405136:	31 c2                	xor    %eax,%edx
  405138:	0f b6 85 d2 fe ff ff 	movzbl -0x12e(%rbp),%eax
  40513f:	31 c2                	xor    %eax,%edx
  405141:	0f b6 85 d3 fe ff ff 	movzbl -0x12d(%rbp),%eax
  405148:	31 c2                	xor    %eax,%edx
  40514a:	0f b6 85 d4 fe ff ff 	movzbl -0x12c(%rbp),%eax
  405151:	31 d0                	xor    %edx,%eax
  405153:	3c 41                	cmp    $0x41,%al
  405155:	74 05                	je     40515c <main+0x18e>
  405157:	e8 58 fe ff ff       	callq  404fb4 <_Z12licenseerrorv>
  40515c:	0f b6 95 d6 fe ff ff 	movzbl -0x12a(%rbp),%edx
  405163:	0f b6 85 d7 fe ff ff 	movzbl -0x129(%rbp),%eax
  40516a:	31 c2                	xor    %eax,%edx
  40516c:	0f b6 85 d8 fe ff ff 	movzbl -0x128(%rbp),%eax
  405173:	31 c2                	xor    %eax,%edx
  405175:	0f b6 85 da fe ff ff 	movzbl -0x126(%rbp),%eax
  40517c:	38 c2                	cmp    %al,%dl
  40517e:	74 05                	je     405185 <main+0x1b7>
  405180:	e8 2f fe ff ff       	callq  404fb4 <_Z12licenseerrorv>
  405185:	0f b6 95 dc fe ff ff 	movzbl -0x124(%rbp),%edx
  40518c:	0f b6 85 dd fe ff ff 	movzbl -0x123(%rbp),%eax
  405193:	21 c2                	and    %eax,%edx
  405195:	0f b6 85 de fe ff ff 	movzbl -0x122(%rbp),%eax
  40519c:	21 c2                	and    %eax,%edx
  40519e:	0f b6 85 df fe ff ff 	movzbl -0x121(%rbp),%eax
  4051a5:	21 c2                	and    %eax,%edx
  4051a7:	0f b6 85 e0 fe ff ff 	movzbl -0x120(%rbp),%eax
  4051ae:	38 c2                	cmp    %al,%dl
  4051b0:	74 05                	je     4051b7 <main+0x1e9>
  4051b2:	e8 fd fd ff ff       	callq  404fb4 <_Z12licenseerrorv>
  4051b7:	0f b6 95 e2 fe ff ff 	movzbl -0x11e(%rbp),%edx
  4051be:	0f b6 85 e6 fe ff ff 	movzbl -0x11a(%rbp),%eax
  4051c5:	09 c2                	or     %eax,%edx
  4051c7:	0f b6 85 e4 fe ff ff 	movzbl -0x11c(%rbp),%eax
  4051ce:	09 d0                	or     %edx,%eax
  4051d0:	0f be c0             	movsbl %al,%eax
  4051d3:	83 e0 0f             	and    $0xf,%eax
  4051d6:	89 c2                	mov    %eax,%edx
  4051d8:	0f b6 8d e5 fe ff ff 	movzbl -0x11b(%rbp),%ecx
  4051df:	0f b6 85 e3 fe ff ff 	movzbl -0x11d(%rbp),%eax
  4051e6:	31 c8                	xor    %ecx,%eax
  4051e8:	0f be c0             	movsbl %al,%eax
  4051eb:	39 c2                	cmp    %eax,%edx
  4051ed:	74 05                	je     4051f4 <main+0x226>
  4051ef:	e8 c0 fd ff ff       	callq  404fb4 <_Z12licenseerrorv>
  4051f4:	0f b6 85 e8 fe ff ff 	movzbl -0x118(%rbp),%eax
  4051fb:	0f be c0             	movsbl %al,%eax
  4051fe:	0f b6 95 e9 fe ff ff 	movzbl -0x117(%rbp),%edx
  405205:	0f be d2             	movsbl %dl,%edx
  405208:	83 ea 01             	sub    $0x1,%edx
  40520b:	39 d0                	cmp    %edx,%eax
  40520d:	75 26                	jne    405235 <main+0x267>
  40520f:	0f b6 85 ea fe ff ff 	movzbl -0x116(%rbp),%eax
  405216:	0f be c0             	movsbl %al,%eax
  405219:	0f b6 95 eb fe ff ff 	movzbl -0x115(%rbp),%edx
  405220:	0f be d2             	movsbl %dl,%edx
  405223:	83 c2 01             	add    $0x1,%edx
  405226:	39 d0                	cmp    %edx,%eax
  405228:	75 0b                	jne    405235 <main+0x267>
  40522a:	0f b6 85 ec fe ff ff 	movzbl -0x114(%rbp),%eax
  405231:	3c 58                	cmp    $0x58,%al
  405233:	74 05                	je     40523a <main+0x26c>
  405235:	e8 7a fd ff ff       	callq  404fb4 <_Z12licenseerrorv>
  40523a:	48 8d 3d 78 27 03 00 	lea    0x32778(%rip),%rdi        # 4379b9 <_ZL3Sin+0x6b9>
  405241:	e8 aa ea ff ff       	callq  403cf0 <puts@plt>
  405246:	48 8b 95 c0 fe ff ff 	mov    -0x140(%rbp),%rdx
  40524d:	48 8d 85 cc fe ff ff 	lea    -0x134(%rbp),%rax
  405254:	48 89 d6             	mov    %rdx,%rsi
  405257:	48 89 c7             	mov    %rax,%rdi
  40525a:	e8 21 e9 ff ff       	callq  403b80 <glutInit@plt>
  40525f:	bf 32 00 00 00       	mov    $0x32,%edi
  405264:	e8 77 e5 ff ff       	callq  4037e0 <glutInitDisplayMode@plt>
  405269:	bf 20 00 00 00       	mov    $0x20,%edi
  40526e:	e8 9d e6 ff ff       	callq  403910 <SDL_Init@plt>
  405273:	85 c0                	test   %eax,%eax
  405275:	0f 95 c0             	setne  %al
  405278:	84 c0                	test   %al,%al
  40527a:	74 4a                	je     4052c6 <main+0x2f8>
  40527c:	48 8d 35 4e 27 03 00 	lea    0x3274e(%rip),%rsi        # 4379d1 <_ZL3Sin+0x6d1>
  405283:	48 8d 3d 36 b3 24 00 	lea    0x24b336(%rip),%rdi        # 6505c0 <_ZSt4cerr@@GLIBCXX_3.4>
  40528a:	e8 91 e7 ff ff       	callq  403a20 <_ZStlsISt11char_traitsIcEERSt13basic_ostreamIcT_ES5_PKc@plt>
  40528f:	48 8d 35 2a 26 03 00 	lea    0x3262a(%rip),%rsi        # 4378c0 <_ZL3Sin+0x5c0>
  405296:	48 89 c7             	mov    %rax,%rdi
  405299:	e8 82 e7 ff ff       	callq  403a20 <_ZStlsISt11char_traitsIcEERSt13basic_ostreamIcT_ES5_PKc@plt>
  40529e:	48 89 c3             	mov    %rax,%rbx
  4052a1:	e8 ca e5 ff ff       	callq  403870 <SDL_GetError@plt>
  4052a6:	48 89 c6             	mov    %rax,%rsi
  4052a9:	48 89 df             	mov    %rbx,%rdi
  4052ac:	e8 6f e7 ff ff       	callq  403a20 <_ZStlsISt11char_traitsIcEERSt13basic_ostreamIcT_ES5_PKc@plt>
  4052b1:	48 89 c2             	mov    %rax,%rdx
  4052b4:	48 8b 05 fd ac 24 00 	mov    0x24acfd(%rip),%rax        # 64ffb8 <_ZSt4endlIcSt11char_traitsIcEERSt13basic_ostreamIT_T0_ES6_@GLIBCXX_3.4>
  4052bb:	48 89 c6             	mov    %rax,%rsi
  4052be:	48 89 d7             	mov    %rdx,%rdi
  4052c1:	e8 da e7 ff ff       	callq  403aa0 <_ZNSolsEPFRSoS_E@plt>
  4052c6:	48 8b 05 e3 ac 24 00 	mov    0x24ace3(%rip),%rax        # 64ffb0 <SDL_Quit>
  4052cd:	48 89 c7             	mov    %rax,%rdi
  4052d0:	e8 2b 19 03 00       	callq  436c00 <atexit>
  4052d5:	be 01 00 00 00       	mov    $0x1,%esi
  4052da:	bf 05 00 00 00       	mov    $0x5,%edi
  4052df:	e8 cc ea ff ff       	callq  403db0 <SDL_GL_SetAttribute@plt>
  4052e4:	be 10 00 00 00       	mov    $0x10,%esi
  4052e9:	bf 06 00 00 00       	mov    $0x6,%edi
  4052ee:	e8 bd ea ff ff       	callq  403db0 <SDL_GL_SetAttribute@plt>
  4052f3:	be 08 00 00 00       	mov    $0x8,%esi
  4052f8:	bf 07 00 00 00       	mov    $0x7,%edi
  4052fd:	e8 ae ea ff ff       	callq  403db0 <SDL_GL_SetAttribute@plt>
  405302:	bf 01 00 00 00       	mov    $0x1,%edi
  405307:	e8 b4 eb ff ff       	callq  403ec0 <SDL_ShowCursor@plt>
  40530c:	8b 35 12 b2 24 00    	mov    0x24b212(%rip),%esi        # 650524 <_ZN12_GLOBAL__N_16heightE>
  405312:	8b 05 08 b2 24 00    	mov    0x24b208(%rip),%eax        # 650520 <_ZN12_GLOBAL__N_15widthE>
  405318:	b9 02 00 00 00       	mov    $0x2,%ecx
  40531d:	ba 00 00 00 00       	mov    $0x0,%edx
  405322:	89 c7                	mov    %eax,%edi
  405324:	e8 47 e6 ff ff       	callq  403970 <SDL_SetVideoMode@plt>
  405329:	48 85 c0             	test   %rax,%rax
  40532c:	0f 94 c0             	sete   %al
  40532f:	84 c0                	test   %al,%al
  405331:	74 4a                	je     40537d <main+0x3af>
  405333:	48 8d 35 6a 25 03 00 	lea    0x3256a(%rip),%rsi        # 4378a4 <_ZL3Sin+0x5a4>
  40533a:	48 8d 3d 7f b2 24 00 	lea    0x24b27f(%rip),%rdi        # 6505c0 <_ZSt4cerr@@GLIBCXX_3.4>
  405341:	e8 da e6 ff ff       	callq  403a20 <_ZStlsISt11char_traitsIcEERSt13basic_ostreamIcT_ES5_PKc@plt>
  405346:	48 8d 35 73 25 03 00 	lea    0x32573(%rip),%rsi        # 4378c0 <_ZL3Sin+0x5c0>
  40534d:	48 89 c7             	mov    %rax,%rdi
  405350:	e8 cb e6 ff ff       	callq  403a20 <_ZStlsISt11char_traitsIcEERSt13basic_ostreamIcT_ES5_PKc@plt>
  405355:	48 89 c3             	mov    %rax,%rbx
  405358:	e8 13 e5 ff ff       	callq  403870 <SDL_GetError@plt>
  40535d:	48 89 c6             	mov    %rax,%rsi
  405360:	48 89 df             	mov    %rbx,%rdi
  405363:	e8 b8 e6 ff ff       	callq  403a20 <_ZStlsISt11char_traitsIcEERSt13basic_ostreamIcT_ES5_PKc@plt>
  405368:	48 89 c2             	mov    %rax,%rdx
  40536b:	48 8b 05 46 ac 24 00 	mov    0x24ac46(%rip),%rax        # 64ffb8 <_ZSt4endlIcSt11char_traitsIcEERSt13basic_ostreamIT_T0_ES6_@GLIBCXX_3.4>
  405372:	48 89 c6             	mov    %rax,%rsi
  405375:	48 89 d7             	mov    %rdx,%rdi
  405378:	e8 23 e7 ff ff       	callq  403aa0 <_ZNSolsEPFRSoS_E@plt>
  40537d:	be 00 00 00 00       	mov    $0x0,%esi
  405382:	48 8d 3d 5c 26 03 00 	lea    0x3265c(%rip),%rdi        # 4379e5 <_ZL3Sin+0x6e5>
  405389:	e8 22 e6 ff ff       	callq  4039b0 <SDL_WM_SetCaption@plt>
  40538e:	e8 ce f9 ff ff       	callq  404d61 <_ZL4initv>
  405393:	e8 2c f4 ff ff       	callq  4047c4 <_ZL8mainLoopv>
  405398:	e8 66 fb ff ff       	callq  404f03 <_Z5cleanv>
  40539d:	48 83 7d d8 00       	cmpq   $0x0,-0x28(%rbp)
  4053a2:	75 0b                	jne    4053af <main+0x3e1>
  4053a4:	48 c7 c0 01 00 00 00 	mov    $0x1,%rax
  4053ab:	c3                   	retq   
  4053ac:	0f 05                	syscall 
  4053ae:	c3                   	retq   
  4053af:	b8 00 00 00 00       	mov    $0x0,%eax
  4053b4:	48 81 c4 38 01 00 00 	add    $0x138,%rsp
  4053bb:	5b                   	pop    %rbx
  4053bc:	5d                   	pop    %rbp
  4053bd:	c3                   	retq   

00000000004053be <_Z41__static_initialization_and_destruction_0ii>:
  4053be:	55                   	push   %rbp
  4053bf:	48 89 e5             	mov    %rsp,%rbp
  4053c2:	48 83 ec 10          	sub    $0x10,%rsp
  4053c6:	89 7d fc             	mov    %edi,-0x4(%rbp)
  4053c9:	89 75 f8             	mov    %esi,-0x8(%rbp)
  4053cc:	83 7d fc 01          	cmpl   $0x1,-0x4(%rbp)
  4053d0:	75 32                	jne    405404 <_Z41__static_initialization_and_destruction_0ii+0x46>
  4053d2:	81 7d f8 ff ff 00 00 	cmpl   $0xffff,-0x8(%rbp)
  4053d9:	75 29                	jne    405404 <_Z41__static_initialization_and_destruction_0ii+0x46>
  4053db:	48 8d 3d f6 b2 24 00 	lea    0x24b2f6(%rip),%rdi        # 6506d8 <_ZStL8__ioinit>
  4053e2:	e8 f9 e8 ff ff       	callq  403ce0 <_ZNSt8ios_base4InitC1Ev@plt>
  4053e7:	48 8d 15 2a b1 24 00 	lea    0x24b12a(%rip),%rdx        # 650518 <__dso_handle>
  4053ee:	48 8d 35 e3 b2 24 00 	lea    0x24b2e3(%rip),%rsi        # 6506d8 <_ZStL8__ioinit>
  4053f5:	48 8b 05 fc ab 24 00 	mov    0x24abfc(%rip),%rax        # 64fff8 <_ZNSt8ios_base4InitD1Ev@GLIBCXX_3.4>
  4053fc:	48 89 c7             	mov    %rax,%rdi
  4053ff:	e8 14 eb ff ff       	callq  403f18 <__cxa_atexit@plt>
  405404:	90                   	nop
  405405:	c9                   	leaveq 
  405406:	c3                   	retq   

0000000000405407 <_GLOBAL__sub_I__Z5cleanv>:
  405407:	55                   	push   %rbp
  405408:	48 89 e5             	mov    %rsp,%rbp
  40540b:	be ff ff 00 00       	mov    $0xffff,%esi
  405410:	bf 01 00 00 00       	mov    $0x1,%edi
  405415:	e8 a4 ff ff ff       	callq  4053be <_Z41__static_initialization_and_destruction_0ii>
  40541a:	5d                   	pop    %rbp
  40541b:	c3                   	retq   

000000000040541c <_ZNKSt6vectorIP5SpellSaIS1_EE4sizeEv>:
  40541c:	55                   	push   %rbp
  40541d:	48 89 e5             	mov    %rsp,%rbp
  405420:	48 89 7d f8          	mov    %rdi,-0x8(%rbp)
  405424:	48 8b 45 f8          	mov    -0x8(%rbp),%rax
  405428:	48 8b 40 08          	mov    0x8(%rax),%rax
  40542c:	48 89 c2             	mov    %rax,%rdx
  40542f:	48 8b 45 f8          	mov    -0x8(%rbp),%rax
  405433:	48 8b 00             	mov    (%rax),%rax
  405436:	48 29 c2             	sub    %rax,%rdx
  405439:	48 89 d0             	mov    %rdx,%rax
  40543c:	48 c1 f8 03          	sar    $0x3,%rax
  405440:	5d                   	pop    %rbp
  405441:	c3                   	retq   

0000000000405442 <_ZNSt6vectorIP5SpellSaIS1_EEixEm>:
  405442:	55                   	push   %rbp
  405443:	48 89 e5             	mov    %rsp,%rbp
  405446:	48 89 7d f8          	mov    %rdi,-0x8(%rbp)
  40544a:	48 89 75 f0          	mov    %rsi,-0x10(%rbp)
  40544e:	48 8b 45 f8          	mov    -0x8(%rbp),%rax
  405452:	48 8b 00             	mov    (%rax),%rax
  405455:	48 8b 55 f0          	mov    -0x10(%rbp),%rdx
  405459:	48 c1 e2 03          	shl    $0x3,%rdx
  40545d:	48 01 d0             	add    %rdx,%rax
  405460:	5d                   	pop    %rbp
  405461:	c3                   	retq   

0000000000405462 <_Z11loadTextureRKNSt7__cxx1112basic_stringIcSt11char_traitsIcESaIcEEEb>:
  405462:	55                   	push   %rbp
  405463:	48 89 e5             	mov    %rsp,%rbp
  405466:	48 83 ec 20          	sub    $0x20,%rsp
  40546a:	48 89 7d e8          	mov    %rdi,-0x18(%rbp)
  40546e:	89 f0                	mov    %esi,%eax
  405470:	88 45 e4             	mov    %al,-0x1c(%rbp)
  405473:	48 8b 45 e8          	mov    -0x18(%rbp),%rax
  405477:	48 89 c7             	mov    %rax,%rdi
  40547a:	e8 31 e2 ff ff       	callq  4036b0 <_ZNKSt7__cxx1112basic_stringIcSt11char_traitsIcESaIcEE5c_strEv@plt>
  40547f:	48 89 c7             	mov    %rax,%rdi
  405482:	e8 89 e9 ff ff       	callq  403e10 <IMG_Load@plt>
  405487:	48 89 45 f0          	mov    %rax,-0x10(%rbp)
  40548b:	48 83 7d f0 00       	cmpq   $0x0,-0x10(%rbp)
  405490:	75 0a                	jne    40549c <_Z11loadTextureRKNSt7__cxx1112basic_stringIcSt11char_traitsIcESaIcEEEb+0x3a>
  405492:	b8 00 00 00 00       	mov    $0x0,%eax
  405497:	e9 67 01 00 00       	jmpq   405603 <_Z11loadTextureRKNSt7__cxx1112basic_stringIcSt11char_traitsIcESaIcEEEb+0x1a1>
  40549c:	48 8b 45 f0          	mov    -0x10(%rbp),%rax
  4054a0:	8b 50 10             	mov    0x10(%rax),%edx
  4054a3:	48 8b 45 f0          	mov    -0x10(%rbp),%rax
  4054a7:	8b 40 10             	mov    0x10(%rax),%eax
  4054aa:	83 e8 01             	sub    $0x1,%eax
  4054ad:	21 d0                	and    %edx,%eax
  4054af:	85 c0                	test   %eax,%eax
  4054b1:	75 17                	jne    4054ca <_Z11loadTextureRKNSt7__cxx1112basic_stringIcSt11char_traitsIcESaIcEEEb+0x68>
  4054b3:	48 8b 45 f0          	mov    -0x10(%rbp),%rax
  4054b7:	8b 50 14             	mov    0x14(%rax),%edx
  4054ba:	48 8b 45 f0          	mov    -0x10(%rbp),%rax
  4054be:	8b 40 14             	mov    0x14(%rax),%eax
  4054c1:	83 e8 01             	sub    $0x1,%eax
  4054c4:	21 d0                	and    %edx,%eax
  4054c6:	85 c0                	test   %eax,%eax
  4054c8:	74 16                	je     4054e0 <_Z11loadTextureRKNSt7__cxx1112basic_stringIcSt11char_traitsIcESaIcEEEb+0x7e>
  4054ca:	48 8b 45 f0          	mov    -0x10(%rbp),%rax
  4054ce:	48 89 c7             	mov    %rax,%rdi
  4054d1:	e8 8a e4 ff ff       	callq  403960 <SDL_FreeSurface@plt>
  4054d6:	b8 00 00 00 00       	mov    $0x0,%eax
  4054db:	e9 23 01 00 00       	jmpq   405603 <_Z11loadTextureRKNSt7__cxx1112basic_stringIcSt11char_traitsIcESaIcEEEb+0x1a1>
  4054e0:	48 8b 45 f0          	mov    -0x10(%rbp),%rax
  4054e4:	48 8b 40 08          	mov    0x8(%rax),%rax
  4054e8:	0f b6 40 09          	movzbl 0x9(%rax),%eax
  4054ec:	3c 04                	cmp    $0x4,%al
  4054ee:	75 09                	jne    4054f9 <_Z11loadTextureRKNSt7__cxx1112basic_stringIcSt11char_traitsIcESaIcEEEb+0x97>
  4054f0:	c7 45 fc 08 19 00 00 	movl   $0x1908,-0x4(%rbp)
  4054f7:	eb 48                	jmp    405541 <_Z11loadTextureRKNSt7__cxx1112basic_stringIcSt11char_traitsIcESaIcEEEb+0xdf>
  4054f9:	48 8b 45 f0          	mov    -0x10(%rbp),%rax
  4054fd:	48 8b 40 08          	mov    0x8(%rax),%rax
  405501:	0f b6 40 09          	movzbl 0x9(%rax),%eax
  405505:	3c 03                	cmp    $0x3,%al
  405507:	75 09                	jne    405512 <_Z11loadTextureRKNSt7__cxx1112basic_stringIcSt11char_traitsIcESaIcEEEb+0xb0>
  405509:	c7 45 fc 07 19 00 00 	movl   $0x1907,-0x4(%rbp)
  405510:	eb 2f                	jmp    405541 <_Z11loadTextureRKNSt7__cxx1112basic_stringIcSt11char_traitsIcESaIcEEEb+0xdf>
  405512:	48 8b 45 f0          	mov    -0x10(%rbp),%rax
  405516:	48 8b 40 08          	mov    0x8(%rax),%rax
  40551a:	0f b6 40 09          	movzbl 0x9(%rax),%eax
  40551e:	3c 01                	cmp    $0x1,%al
  405520:	75 09                	jne    40552b <_Z11loadTextureRKNSt7__cxx1112basic_stringIcSt11char_traitsIcESaIcEEEb+0xc9>
  405522:	c7 45 fc 09 19 00 00 	movl   $0x1909,-0x4(%rbp)
  405529:	eb 16                	jmp    405541 <_Z11loadTextureRKNSt7__cxx1112basic_stringIcSt11char_traitsIcESaIcEEEb+0xdf>
  40552b:	48 8b 45 f0          	mov    -0x10(%rbp),%rax
  40552f:	48 89 c7             	mov    %rax,%rdi
  405532:	e8 29 e4 ff ff       	callq  403960 <SDL_FreeSurface@plt>
  405537:	b8 00 00 00 00       	mov    $0x0,%eax
  40553c:	e9 c2 00 00 00       	jmpq   405603 <_Z11loadTextureRKNSt7__cxx1112basic_stringIcSt11char_traitsIcESaIcEEEb+0x1a1>
  405541:	80 7d e4 00          	cmpb   $0x0,-0x1c(%rbp)
  405545:	74 3c                	je     405583 <_Z11loadTextureRKNSt7__cxx1112basic_stringIcSt11char_traitsIcESaIcEEEb+0x121>
  405547:	48 8b 45 f0          	mov    -0x10(%rbp),%rax
  40554b:	48 8b 70 20          	mov    0x20(%rax),%rsi
  40554f:	48 8b 45 f0          	mov    -0x10(%rbp),%rax
  405553:	8b 48 14             	mov    0x14(%rax),%ecx
  405556:	48 8b 45 f0          	mov    -0x10(%rbp),%rax
  40555a:	8b 50 10             	mov    0x10(%rax),%edx
  40555d:	8b 45 fc             	mov    -0x4(%rbp),%eax
  405560:	8b 7d fc             	mov    -0x4(%rbp),%edi
  405563:	48 83 ec 08          	sub    $0x8,%rsp
  405567:	56                   	push   %rsi
  405568:	41 b9 01 14 00 00    	mov    $0x1401,%r9d
  40556e:	41 89 f8             	mov    %edi,%r8d
  405571:	89 c6                	mov    %eax,%esi
  405573:	bf e1 0d 00 00       	mov    $0xde1,%edi
  405578:	e8 03 e2 ff ff       	callq  403780 <gluBuild2DMipmaps@plt>
  40557d:	48 83 c4 10          	add    $0x10,%rsp
  405581:	eb 6f                	jmp    4055f2 <_Z11loadTextureRKNSt7__cxx1112basic_stringIcSt11char_traitsIcESaIcEEEb+0x190>
  405583:	48 8b 45 f0          	mov    -0x10(%rbp),%rax
  405587:	48 8b 48 20          	mov    0x20(%rax),%rcx
  40558b:	48 8b 45 f0          	mov    -0x10(%rbp),%rax
  40558f:	8b 70 14             	mov    0x14(%rax),%esi
  405592:	48 8b 45 f0          	mov    -0x10(%rbp),%rax
  405596:	8b 50 10             	mov    0x10(%rax),%edx
  405599:	8b 45 fc             	mov    -0x4(%rbp),%eax
  40559c:	48 83 ec 08          	sub    $0x8,%rsp
  4055a0:	51                   	push   %rcx
  4055a1:	68 01 14 00 00       	pushq  $0x1401
  4055a6:	8b 4d fc             	mov    -0x4(%rbp),%ecx
  4055a9:	51                   	push   %rcx
  4055aa:	41 b9 00 00 00 00    	mov    $0x0,%r9d
  4055b0:	41 89 f0             	mov    %esi,%r8d
  4055b3:	89 d1                	mov    %edx,%ecx
  4055b5:	89 c2                	mov    %eax,%edx
  4055b7:	be 00 00 00 00       	mov    $0x0,%esi
  4055bc:	bf e1 0d 00 00       	mov    $0xde1,%edi
  4055c1:	e8 ca e0 ff ff       	callq  403690 <glTexImage2D@plt>
  4055c6:	48 83 c4 20          	add    $0x20,%rsp
  4055ca:	ba 01 26 00 00       	mov    $0x2601,%edx
  4055cf:	be 01 28 00 00       	mov    $0x2801,%esi
  4055d4:	bf e1 0d 00 00       	mov    $0xde1,%edi
  4055d9:	e8 12 e6 ff ff       	callq  403bf0 <glTexParameteri@plt>
  4055de:	ba 01 26 00 00       	mov    $0x2601,%edx
  4055e3:	be 00 28 00 00       	mov    $0x2800,%esi
  4055e8:	bf e1 0d 00 00       	mov    $0xde1,%edi
  4055ed:	e8 fe e5 ff ff       	callq  403bf0 <glTexParameteri@plt>
  4055f2:	48 8b 45 f0          	mov    -0x10(%rbp),%rax
  4055f6:	48 89 c7             	mov    %rax,%rdi
  4055f9:	e8 62 e3 ff ff       	callq  403960 <SDL_FreeSurface@plt>
  4055fe:	b8 01 00 00 00       	mov    $0x1,%eax
  405603:	c9                   	leaveq 
  405604:	c3                   	retq   
  405605:	90                   	nop

0000000000405606 <_ZN9ObjLoaderC1EPKcf>:
  405606:	55                   	push   %rbp
  405607:	48 89 e5             	mov    %rsp,%rbp
  40560a:	53                   	push   %rbx
  40560b:	48 83 ec 28          	sub    $0x28,%rsp
  40560f:	48 89 7d e8          	mov    %rdi,-0x18(%rbp)
  405613:	48 89 75 e0          	mov    %rsi,-0x20(%rbp)
  405617:	f3 0f 11 45 dc       	movss  %xmm0,-0x24(%rbp)
  40561c:	48 8b 45 e8          	mov    -0x18(%rbp),%rax
  405620:	c6 00 00             	movb   $0x0,(%rax)
  405623:	48 8b 45 e8          	mov    -0x18(%rbp),%rax
  405627:	48 83 c0 08          	add    $0x8,%rax
  40562b:	48 89 c7             	mov    %rax,%rdi
  40562e:	e8 2b 08 00 00       	callq  405e5e <_ZNSt6vectorIN9ObjLoader7Vector3ESaIS1_EEC1Ev>
  405633:	48 8b 45 e8          	mov    -0x18(%rbp),%rax
  405637:	48 83 c0 20          	add    $0x20,%rax
  40563b:	48 89 c7             	mov    %rax,%rdi
  40563e:	e8 1b 08 00 00       	callq  405e5e <_ZNSt6vectorIN9ObjLoader7Vector3ESaIS1_EEC1Ev>
  405643:	48 8b 45 e8          	mov    -0x18(%rbp),%rax
  405647:	48 83 c0 38          	add    $0x38,%rax
  40564b:	48 89 c7             	mov    %rax,%rdi
  40564e:	e8 0b 08 00 00       	callq  405e5e <_ZNSt6vectorIN9ObjLoader7Vector3ESaIS1_EEC1Ev>
  405653:	48 8b 45 e8          	mov    -0x18(%rbp),%rax
  405657:	48 83 c0 50          	add    $0x50,%rax
  40565b:	48 89 c7             	mov    %rax,%rdi
  40565e:	e8 5b 08 00 00       	callq  405ebe <_ZNSt6vectorIN9ObjLoader7PolygonESaIS1_EEC1Ev>
  405663:	48 8b 55 e0          	mov    -0x20(%rbp),%rdx
  405667:	48 8b 45 e8          	mov    -0x18(%rbp),%rax
  40566b:	48 89 d6             	mov    %rdx,%rsi
  40566e:	48 89 c7             	mov    %rax,%rdi
  405671:	e8 be 00 00 00       	callq  405734 <_ZN9ObjLoader4loadEPKc>
  405676:	8b 55 dc             	mov    -0x24(%rbp),%edx
  405679:	48 8b 45 e8          	mov    -0x18(%rbp),%rax
  40567d:	89 55 d8             	mov    %edx,-0x28(%rbp)
  405680:	f3 0f 10 45 d8       	movss  -0x28(%rbp),%xmm0
  405685:	48 89 c7             	mov    %rax,%rdi
  405688:	e8 bb 06 00 00       	callq  405d48 <_ZN9ObjLoader5scaleEf>
  40568d:	eb 4e                	jmp    4056dd <_ZN9ObjLoaderC1EPKcf+0xd7>
  40568f:	48 89 c3             	mov    %rax,%rbx
  405692:	48 8b 45 e8          	mov    -0x18(%rbp),%rax
  405696:	48 83 c0 50          	add    $0x50,%rax
  40569a:	48 89 c7             	mov    %rax,%rdi
  40569d:	e8 38 08 00 00       	callq  405eda <_ZNSt6vectorIN9ObjLoader7PolygonESaIS1_EED1Ev>
  4056a2:	48 8b 45 e8          	mov    -0x18(%rbp),%rax
  4056a6:	48 83 c0 38          	add    $0x38,%rax
  4056aa:	48 89 c7             	mov    %rax,%rdi
  4056ad:	e8 c8 07 00 00       	callq  405e7a <_ZNSt6vectorIN9ObjLoader7Vector3ESaIS1_EED1Ev>
  4056b2:	48 8b 45 e8          	mov    -0x18(%rbp),%rax
  4056b6:	48 83 c0 20          	add    $0x20,%rax
  4056ba:	48 89 c7             	mov    %rax,%rdi
  4056bd:	e8 b8 07 00 00       	callq  405e7a <_ZNSt6vectorIN9ObjLoader7Vector3ESaIS1_EED1Ev>
  4056c2:	48 8b 45 e8          	mov    -0x18(%rbp),%rax
  4056c6:	48 83 c0 08          	add    $0x8,%rax
  4056ca:	48 89 c7             	mov    %rax,%rdi
  4056cd:	e8 a8 07 00 00       	callq  405e7a <_ZNSt6vectorIN9ObjLoader7Vector3ESaIS1_EED1Ev>
  4056d2:	48 89 d8             	mov    %rbx,%rax
  4056d5:	48 89 c7             	mov    %rax,%rdi
  4056d8:	e8 23 e7 ff ff       	callq  403e00 <_Unwind_Resume@plt>
  4056dd:	48 83 c4 28          	add    $0x28,%rsp
  4056e1:	5b                   	pop    %rbx
  4056e2:	5d                   	pop    %rbp
  4056e3:	c3                   	retq   

00000000004056e4 <_ZN9ObjLoaderD1Ev>:
  4056e4:	55                   	push   %rbp
  4056e5:	48 89 e5             	mov    %rsp,%rbp
  4056e8:	48 83 ec 10          	sub    $0x10,%rsp
  4056ec:	48 89 7d f8          	mov    %rdi,-0x8(%rbp)
  4056f0:	48 8b 45 f8          	mov    -0x8(%rbp),%rax
  4056f4:	48 83 c0 50          	add    $0x50,%rax
  4056f8:	48 89 c7             	mov    %rax,%rdi
  4056fb:	e8 da 07 00 00       	callq  405eda <_ZNSt6vectorIN9ObjLoader7PolygonESaIS1_EED1Ev>
  405700:	48 8b 45 f8          	mov    -0x8(%rbp),%rax
  405704:	48 83 c0 38          	add    $0x38,%rax
  405708:	48 89 c7             	mov    %rax,%rdi
  40570b:	e8 6a 07 00 00       	callq  405e7a <_ZNSt6vectorIN9ObjLoader7Vector3ESaIS1_EED1Ev>
  405710:	48 8b 45 f8          	mov    -0x8(%rbp),%rax
  405714:	48 83 c0 20          	add    $0x20,%rax
  405718:	48 89 c7             	mov    %rax,%rdi
  40571b:	e8 5a 07 00 00       	callq  405e7a <_ZNSt6vectorIN9ObjLoader7Vector3ESaIS1_EED1Ev>
  405720:	48 8b 45 f8          	mov    -0x8(%rbp),%rax
  405724:	48 83 c0 08          	add    $0x8,%rax
  405728:	48 89 c7             	mov    %rax,%rdi
  40572b:	e8 4a 07 00 00       	callq  405e7a <_ZNSt6vectorIN9ObjLoader7Vector3ESaIS1_EED1Ev>
  405730:	90                   	nop
  405731:	c9                   	leaveq 
  405732:	c3                   	retq   
  405733:	90                   	nop

0000000000405734 <_ZN9ObjLoader4loadEPKc>:
  405734:	55                   	push   %rbp
  405735:	48 89 e5             	mov    %rsp,%rbp
  405738:	53                   	push   %rbx
  405739:	48 81 ec a8 09 00 00 	sub    $0x9a8,%rsp
  405740:	48 89 bd 58 f6 ff ff 	mov    %rdi,-0x9a8(%rbp)
  405747:	48 89 b5 50 f6 ff ff 	mov    %rsi,-0x9b0(%rbp)
  40574e:	48 8b 85 50 f6 ff ff 	mov    -0x9b0(%rbp),%rax
  405755:	48 8d 35 e5 22 03 00 	lea    0x322e5(%rip),%rsi        # 437a41 <_ZStL19piecewise_construct+0x1>
  40575c:	48 89 c7             	mov    %rax,%rdi
  40575f:	e8 8c e3 ff ff       	callq  403af0 <fopen@plt>
  405764:	48 89 45 c8          	mov    %rax,-0x38(%rbp)
  405768:	48 83 7d c8 00       	cmpq   $0x0,-0x38(%rbp)
  40576d:	75 0f                	jne    40577e <_ZN9ObjLoader4loadEPKc+0x4a>
  40576f:	48 8b 85 58 f6 ff ff 	mov    -0x9a8(%rbp),%rax
  405776:	c6 00 01             	movb   $0x1,(%rax)
  405779:	e9 bf 05 00 00       	jmpq   405d3d <_ZN9ObjLoader4loadEPKc+0x609>
  40577e:	c7 45 ec 00 00 00 00 	movl   $0x0,-0x14(%rbp)
  405785:	c7 45 e8 ff ff ff ff 	movl   $0xffffffff,-0x18(%rbp)
  40578c:	c7 45 e4 00 00 00 00 	movl   $0x0,-0x1c(%rbp)
  405793:	48 8b 55 c8          	mov    -0x38(%rbp),%rdx
  405797:	48 8d 85 80 f7 ff ff 	lea    -0x880(%rbp),%rax
  40579e:	be 00 08 00 00       	mov    $0x800,%esi
  4057a3:	48 89 c7             	mov    %rax,%rdi
  4057a6:	e8 95 e5 ff ff       	callq  403d40 <fgets@plt>
  4057ab:	48 85 c0             	test   %rax,%rax
  4057ae:	0f 94 c0             	sete   %al
  4057b1:	84 c0                	test   %al,%al
  4057b3:	74 18                	je     4057cd <_ZN9ObjLoader4loadEPKc+0x99>
  4057b5:	48 8b 45 c8          	mov    -0x38(%rbp),%rax
  4057b9:	48 89 c7             	mov    %rax,%rdi
  4057bc:	e8 6f e2 ff ff       	callq  403a30 <fclose@plt>
  4057c1:	c7 45 d4 00 00 00 00 	movl   $0x0,-0x2c(%rbp)
  4057c8:	e9 d0 03 00 00       	jmpq   405b9d <_ZN9ObjLoader4loadEPKc+0x469>
  4057cd:	83 45 ec 01          	addl   $0x1,-0x14(%rbp)
  4057d1:	48 8d 85 80 f7 ff ff 	lea    -0x880(%rbp),%rax
  4057d8:	48 89 45 d8          	mov    %rax,-0x28(%rbp)
  4057dc:	48 8b 45 d8          	mov    -0x28(%rbp),%rax
  4057e0:	be 23 00 00 00       	mov    $0x23,%esi
  4057e5:	48 89 c7             	mov    %rax,%rdi
  4057e8:	e8 93 de ff ff       	callq  403680 <strchr@plt>
  4057ed:	48 85 c0             	test   %rax,%rax
  4057f0:	74 14                	je     405806 <_ZN9ObjLoader4loadEPKc+0xd2>
  4057f2:	48 8b 45 d8          	mov    -0x28(%rbp),%rax
  4057f6:	be 23 00 00 00       	mov    $0x23,%esi
  4057fb:	48 89 c7             	mov    %rax,%rdi
  4057fe:	e8 7d de ff ff       	callq  403680 <strchr@plt>
  405803:	c6 00 00             	movb   $0x0,(%rax)
  405806:	48 8b 45 d8          	mov    -0x28(%rbp),%rax
  40580a:	0f b6 00             	movzbl (%rax),%eax
  40580d:	0f be c0             	movsbl %al,%eax
  405810:	89 c7                	mov    %eax,%edi
  405812:	e8 59 dd ff ff       	callq  403570 <isspace@plt>
  405817:	85 c0                	test   %eax,%eax
  405819:	74 07                	je     405822 <_ZN9ObjLoader4loadEPKc+0xee>
  40581b:	48 83 45 d8 01       	addq   $0x1,-0x28(%rbp)
  405820:	eb e4                	jmp    405806 <_ZN9ObjLoader4loadEPKc+0xd2>
  405822:	48 8b 45 d8          	mov    -0x28(%rbp),%rax
  405826:	0f b6 00             	movzbl (%rax),%eax
  405829:	84 c0                	test   %al,%al
  40582b:	0f 84 66 03 00 00    	je     405b97 <_ZN9ObjLoader4loadEPKc+0x463>
  405831:	48 8b 45 d8          	mov    -0x28(%rbp),%rax
  405835:	0f b6 00             	movzbl (%rax),%eax
  405838:	3c 0d                	cmp    $0xd,%al
  40583a:	0f 84 57 03 00 00    	je     405b97 <_ZN9ObjLoader4loadEPKc+0x463>
  405840:	48 8b 45 d8          	mov    -0x28(%rbp),%rax
  405844:	0f b6 00             	movzbl (%rax),%eax
  405847:	3c 0a                	cmp    $0xa,%al
  405849:	0f 84 48 03 00 00    	je     405b97 <_ZN9ObjLoader4loadEPKc+0x463>
  40584f:	48 8b 45 d8          	mov    -0x28(%rbp),%rax
  405853:	ba 02 00 00 00       	mov    $0x2,%edx
  405858:	48 8d 35 e4 21 03 00 	lea    0x321e4(%rip),%rsi        # 437a43 <_ZStL19piecewise_construct+0x3>
  40585f:	48 89 c7             	mov    %rax,%rdi
  405862:	e8 b9 de ff ff       	callq  403720 <strncmp@plt>
  405867:	85 c0                	test   %eax,%eax
  405869:	75 55                	jne    4058c0 <_ZN9ObjLoader4loadEPKc+0x18c>
  40586b:	48 8b 45 d8          	mov    -0x28(%rbp),%rax
  40586f:	48 8d 78 02          	lea    0x2(%rax),%rdi
  405873:	48 8d 45 b4          	lea    -0x4c(%rbp),%rax
  405877:	48 8d 48 08          	lea    0x8(%rax),%rcx
  40587b:	48 8d 45 b4          	lea    -0x4c(%rbp),%rax
  40587f:	48 8d 50 04          	lea    0x4(%rax),%rdx
  405883:	48 8d 45 b4          	lea    -0x4c(%rbp),%rax
  405887:	49 89 c8             	mov    %rcx,%r8
  40588a:	48 89 d1             	mov    %rdx,%rcx
  40588d:	48 89 c2             	mov    %rax,%rdx
  405890:	48 8d 35 af 21 03 00 	lea    0x321af(%rip),%rsi        # 437a46 <_ZStL19piecewise_construct+0x6>
  405897:	b8 00 00 00 00       	mov    $0x0,%eax
  40589c:	e8 af df ff ff       	callq  403850 <sscanf@plt>
  4058a1:	48 8b 85 58 f6 ff ff 	mov    -0x9a8(%rbp),%rax
  4058a8:	48 8d 50 08          	lea    0x8(%rax),%rdx
  4058ac:	48 8d 45 b4          	lea    -0x4c(%rbp),%rax
  4058b0:	48 89 c6             	mov    %rax,%rsi
  4058b3:	48 89 d7             	mov    %rdx,%rdi
  4058b6:	e8 63 06 00 00       	callq  405f1e <_ZNSt6vectorIN9ObjLoader7Vector3ESaIS1_EE9push_backERKS1_>
  4058bb:	e9 d3 fe ff ff       	jmpq   405793 <_ZN9ObjLoader4loadEPKc+0x5f>
  4058c0:	48 8b 45 d8          	mov    -0x28(%rbp),%rax
  4058c4:	ba 03 00 00 00       	mov    $0x3,%edx
  4058c9:	48 8d 35 7f 21 03 00 	lea    0x3217f(%rip),%rsi        # 437a4f <_ZStL19piecewise_construct+0xf>
  4058d0:	48 89 c7             	mov    %rax,%rdi
  4058d3:	e8 48 de ff ff       	callq  403720 <strncmp@plt>
  4058d8:	85 c0                	test   %eax,%eax
  4058da:	75 55                	jne    405931 <_ZN9ObjLoader4loadEPKc+0x1fd>
  4058dc:	48 8b 45 d8          	mov    -0x28(%rbp),%rax
  4058e0:	48 8d 78 03          	lea    0x3(%rax),%rdi
  4058e4:	48 8d 45 a8          	lea    -0x58(%rbp),%rax
  4058e8:	48 8d 48 08          	lea    0x8(%rax),%rcx
  4058ec:	48 8d 45 a8          	lea    -0x58(%rbp),%rax
  4058f0:	48 8d 50 04          	lea    0x4(%rax),%rdx
  4058f4:	48 8d 45 a8          	lea    -0x58(%rbp),%rax
  4058f8:	49 89 c8             	mov    %rcx,%r8
  4058fb:	48 89 d1             	mov    %rdx,%rcx
  4058fe:	48 89 c2             	mov    %rax,%rdx
  405901:	48 8d 35 3e 21 03 00 	lea    0x3213e(%rip),%rsi        # 437a46 <_ZStL19piecewise_construct+0x6>
  405908:	b8 00 00 00 00       	mov    $0x0,%eax
  40590d:	e8 3e df ff ff       	callq  403850 <sscanf@plt>
  405912:	48 8b 85 58 f6 ff ff 	mov    -0x9a8(%rbp),%rax
  405919:	48 8d 50 38          	lea    0x38(%rax),%rdx
  40591d:	48 8d 45 a8          	lea    -0x58(%rbp),%rax
  405921:	48 89 c6             	mov    %rax,%rsi
  405924:	48 89 d7             	mov    %rdx,%rdi
  405927:	e8 f2 05 00 00       	callq  405f1e <_ZNSt6vectorIN9ObjLoader7Vector3ESaIS1_EE9push_backERKS1_>
  40592c:	e9 62 fe ff ff       	jmpq   405793 <_ZN9ObjLoader4loadEPKc+0x5f>
  405931:	48 8b 45 d8          	mov    -0x28(%rbp),%rax
  405935:	ba 03 00 00 00       	mov    $0x3,%edx
  40593a:	48 8d 35 12 21 03 00 	lea    0x32112(%rip),%rsi        # 437a53 <_ZStL19piecewise_construct+0x13>
  405941:	48 89 c7             	mov    %rax,%rdi
  405944:	e8 d7 dd ff ff       	callq  403720 <strncmp@plt>
  405949:	85 c0                	test   %eax,%eax
  40594b:	75 55                	jne    4059a2 <_ZN9ObjLoader4loadEPKc+0x26e>
  40594d:	48 8b 45 d8          	mov    -0x28(%rbp),%rax
  405951:	48 8d 78 03          	lea    0x3(%rax),%rdi
  405955:	48 8d 45 9c          	lea    -0x64(%rbp),%rax
  405959:	48 8d 48 08          	lea    0x8(%rax),%rcx
  40595d:	48 8d 45 9c          	lea    -0x64(%rbp),%rax
  405961:	48 8d 50 04          	lea    0x4(%rax),%rdx
  405965:	48 8d 45 9c          	lea    -0x64(%rbp),%rax
  405969:	49 89 c8             	mov    %rcx,%r8
  40596c:	48 89 d1             	mov    %rdx,%rcx
  40596f:	48 89 c2             	mov    %rax,%rdx
  405972:	48 8d 35 cd 20 03 00 	lea    0x320cd(%rip),%rsi        # 437a46 <_ZStL19piecewise_construct+0x6>
  405979:	b8 00 00 00 00       	mov    $0x0,%eax
  40597e:	e8 cd de ff ff       	callq  403850 <sscanf@plt>
  405983:	48 8b 85 58 f6 ff ff 	mov    -0x9a8(%rbp),%rax
  40598a:	48 8d 50 20          	lea    0x20(%rax),%rdx
  40598e:	48 8d 45 9c          	lea    -0x64(%rbp),%rax
  405992:	48 89 c6             	mov    %rax,%rsi
  405995:	48 89 d7             	mov    %rdx,%rdi
  405998:	e8 81 05 00 00       	callq  405f1e <_ZNSt6vectorIN9ObjLoader7Vector3ESaIS1_EE9push_backERKS1_>
  40599d:	e9 f1 fd ff ff       	jmpq   405793 <_ZN9ObjLoader4loadEPKc+0x5f>
  4059a2:	48 8b 45 d8          	mov    -0x28(%rbp),%rax
  4059a6:	ba 02 00 00 00       	mov    $0x2,%edx
  4059ab:	48 8d 35 a5 20 03 00 	lea    0x320a5(%rip),%rsi        # 437a57 <_ZStL19piecewise_construct+0x17>
  4059b2:	48 89 c7             	mov    %rax,%rdi
  4059b5:	e8 66 dd ff ff       	callq  403720 <strncmp@plt>
  4059ba:	85 c0                	test   %eax,%eax
  4059bc:	0f 85 6f 01 00 00    	jne    405b31 <_ZN9ObjLoader4loadEPKc+0x3fd>
  4059c2:	48 8d 85 60 f6 ff ff 	lea    -0x9a0(%rbp),%rax
  4059c9:	48 89 c7             	mov    %rax,%rdi
  4059cc:	e8 4d 04 00 00       	callq  405e1e <_ZN9ObjLoader7PolygonC1Ev>
  4059d1:	48 8b 45 d8          	mov    -0x28(%rbp),%rax
  4059d5:	48 8d 78 02          	lea    0x2(%rax),%rdi
  4059d9:	48 8d 55 98          	lea    -0x68(%rbp),%rdx
  4059dd:	48 8d 85 80 f6 ff ff 	lea    -0x980(%rbp),%rax
  4059e4:	48 89 d1             	mov    %rdx,%rcx
  4059e7:	48 89 c2             	mov    %rax,%rdx
  4059ea:	48 8d 35 69 20 03 00 	lea    0x32069(%rip),%rsi        # 437a5a <_ZStL19piecewise_construct+0x1a>
  4059f1:	b8 00 00 00 00       	mov    $0x0,%eax
  4059f6:	e8 55 de ff ff       	callq  403850 <sscanf@plt>
  4059fb:	83 f8 ff             	cmp    $0xffffffff,%eax
  4059fe:	0f 95 c0             	setne  %al
  405a01:	84 c0                	test   %al,%al
  405a03:	0f 84 ee 00 00 00    	je     405af7 <_ZN9ObjLoader4loadEPKc+0x3c3>
  405a09:	8b 45 98             	mov    -0x68(%rbp),%eax
  405a0c:	48 98                	cltq   
  405a0e:	48 01 45 d8          	add    %rax,-0x28(%rbp)
  405a12:	c7 45 8c ff ff ff ff 	movl   $0xffffffff,-0x74(%rbp)
  405a19:	c7 45 90 ff ff ff ff 	movl   $0xffffffff,-0x70(%rbp)
  405a20:	c7 45 94 ff ff ff ff 	movl   $0xffffffff,-0x6c(%rbp)
  405a27:	48 8d 55 8c          	lea    -0x74(%rbp),%rdx
  405a2b:	48 8d 85 80 f6 ff ff 	lea    -0x980(%rbp),%rax
  405a32:	48 8d 35 27 20 03 00 	lea    0x32027(%rip),%rsi        # 437a60 <_ZStL19piecewise_construct+0x20>
  405a39:	48 89 c7             	mov    %rax,%rdi
  405a3c:	b8 00 00 00 00       	mov    $0x0,%eax
  405a41:	e8 0a de ff ff       	callq  403850 <sscanf@plt>
  405a46:	48 8d 45 8c          	lea    -0x74(%rbp),%rax
  405a4a:	48 8d 48 08          	lea    0x8(%rax),%rcx
  405a4e:	48 8d 55 8c          	lea    -0x74(%rbp),%rdx
  405a52:	48 8d 85 80 f6 ff ff 	lea    -0x980(%rbp),%rax
  405a59:	48 8d 35 05 20 03 00 	lea    0x32005(%rip),%rsi        # 437a65 <_ZStL19piecewise_construct+0x25>
  405a60:	48 89 c7             	mov    %rax,%rdi
  405a63:	b8 00 00 00 00       	mov    $0x0,%eax
  405a68:	e8 e3 dd ff ff       	callq  403850 <sscanf@plt>
  405a6d:	48 8d 45 8c          	lea    -0x74(%rbp),%rax
  405a71:	48 8d 70 08          	lea    0x8(%rax),%rsi
  405a75:	48 8d 45 8c          	lea    -0x74(%rbp),%rax
  405a79:	48 8d 48 04          	lea    0x4(%rax),%rcx
  405a7d:	48 8d 55 8c          	lea    -0x74(%rbp),%rdx
  405a81:	48 8d 85 80 f6 ff ff 	lea    -0x980(%rbp),%rax
  405a88:	49 89 f0             	mov    %rsi,%r8
  405a8b:	48 8d 35 da 1f 03 00 	lea    0x31fda(%rip),%rsi        # 437a6c <_ZStL19piecewise_construct+0x2c>
  405a92:	48 89 c7             	mov    %rax,%rdi
  405a95:	b8 00 00 00 00       	mov    $0x0,%eax
  405a9a:	e8 b1 dd ff ff       	callq  403850 <sscanf@plt>
  405a9f:	8b 45 8c             	mov    -0x74(%rbp),%eax
  405aa2:	ba 00 00 00 00       	mov    $0x0,%edx
  405aa7:	85 c0                	test   %eax,%eax
  405aa9:	0f 48 c2             	cmovs  %edx,%eax
  405aac:	83 e8 01             	sub    $0x1,%eax
  405aaf:	89 45 8c             	mov    %eax,-0x74(%rbp)
  405ab2:	8b 45 90             	mov    -0x70(%rbp),%eax
  405ab5:	ba 00 00 00 00       	mov    $0x0,%edx
  405aba:	85 c0                	test   %eax,%eax
  405abc:	0f 48 c2             	cmovs  %edx,%eax
  405abf:	83 e8 01             	sub    $0x1,%eax
  405ac2:	89 45 90             	mov    %eax,-0x70(%rbp)
  405ac5:	8b 45 94             	mov    -0x6c(%rbp),%eax
  405ac8:	ba 00 00 00 00       	mov    $0x0,%edx
  405acd:	85 c0                	test   %eax,%eax
  405acf:	0f 48 c2             	cmovs  %edx,%eax
  405ad2:	83 e8 01             	sub    $0x1,%eax
  405ad5:	89 45 94             	mov    %eax,-0x6c(%rbp)
  405ad8:	48 8d 45 8c          	lea    -0x74(%rbp),%rax
  405adc:	48 8d 95 60 f6 ff ff 	lea    -0x9a0(%rbp),%rdx
  405ae3:	48 83 c2 08          	add    $0x8,%rdx
  405ae7:	48 89 c6             	mov    %rax,%rsi
  405aea:	48 89 d7             	mov    %rdx,%rdi
  405aed:	e8 08 05 00 00       	callq  405ffa <_ZNSt6vectorIN9ObjLoader13VertexIndicesESaIS1_EE9push_backERKS1_>
  405af2:	e9 da fe ff ff       	jmpq   4059d1 <_ZN9ObjLoader4loadEPKc+0x29d>
  405af7:	8b 45 e8             	mov    -0x18(%rbp),%eax
  405afa:	89 85 60 f6 ff ff    	mov    %eax,-0x9a0(%rbp)
  405b00:	48 8b 85 58 f6 ff ff 	mov    -0x9a8(%rbp),%rax
  405b07:	48 8d 50 50          	lea    0x50(%rax),%rdx
  405b0b:	48 8d 85 60 f6 ff ff 	lea    -0x9a0(%rbp),%rax
  405b12:	48 89 c6             	mov    %rax,%rsi
  405b15:	48 89 d7             	mov    %rdx,%rdi
  405b18:	e8 59 05 00 00       	callq  406076 <_ZNSt6vectorIN9ObjLoader7PolygonESaIS1_EE9push_backERKS1_>
  405b1d:	48 8d 85 60 f6 ff ff 	lea    -0x9a0(%rbp),%rax
  405b24:	48 89 c7             	mov    %rax,%rdi
  405b27:	e8 12 03 00 00       	callq  405e3e <_ZN9ObjLoader7PolygonD1Ev>
  405b2c:	e9 62 fc ff ff       	jmpq   405793 <_ZN9ObjLoader4loadEPKc+0x5f>
  405b31:	48 8b 45 d8          	mov    -0x28(%rbp),%rax
  405b35:	ba 07 00 00 00       	mov    $0x7,%edx
  405b3a:	48 8d 35 34 1f 03 00 	lea    0x31f34(%rip),%rsi        # 437a75 <_ZStL19piecewise_construct+0x35>
  405b41:	48 89 c7             	mov    %rax,%rdi
  405b44:	e8 d7 db ff ff       	callq  403720 <strncmp@plt>
  405b49:	85 c0                	test   %eax,%eax
  405b4b:	75 09                	jne    405b56 <_ZN9ObjLoader4loadEPKc+0x422>
  405b4d:	83 45 e8 01          	addl   $0x1,-0x18(%rbp)
  405b51:	e9 3d fc ff ff       	jmpq   405793 <_ZN9ObjLoader4loadEPKc+0x5f>
  405b56:	48 8b 45 d8          	mov    -0x28(%rbp),%rax
  405b5a:	48 89 c7             	mov    %rax,%rdi
  405b5d:	e8 8e db ff ff       	callq  4036f0 <strlen@plt>
  405b62:	48 8d 50 ff          	lea    -0x1(%rax),%rdx
  405b66:	48 8b 45 d8          	mov    -0x28(%rbp),%rax
  405b6a:	48 01 d0             	add    %rdx,%rax
  405b6d:	0f b6 00             	movzbl (%rax),%eax
  405b70:	3c 0a                	cmp    $0xa,%al
  405b72:	75 1a                	jne    405b8e <_ZN9ObjLoader4loadEPKc+0x45a>
  405b74:	48 8b 45 d8          	mov    -0x28(%rbp),%rax
  405b78:	48 89 c7             	mov    %rax,%rdi
  405b7b:	e8 70 db ff ff       	callq  4036f0 <strlen@plt>
  405b80:	48 8d 50 ff          	lea    -0x1(%rax),%rdx
  405b84:	48 8b 45 d8          	mov    -0x28(%rbp),%rax
  405b88:	48 01 d0             	add    %rdx,%rax
  405b8b:	c6 00 00             	movb   $0x0,(%rax)
  405b8e:	83 45 e4 01          	addl   $0x1,-0x1c(%rbp)
  405b92:	e9 fc fb ff ff       	jmpq   405793 <_ZN9ObjLoader4loadEPKc+0x5f>
  405b97:	90                   	nop
  405b98:	e9 f6 fb ff ff       	jmpq   405793 <_ZN9ObjLoader4loadEPKc+0x5f>
  405b9d:	8b 5d d4             	mov    -0x2c(%rbp),%ebx
  405ba0:	48 8b 85 58 f6 ff ff 	mov    -0x9a8(%rbp),%rax
  405ba7:	48 83 c0 50          	add    $0x50,%rax
  405bab:	48 89 c7             	mov    %rax,%rdi
  405bae:	e8 3f 05 00 00       	callq  4060f2 <_ZNKSt6vectorIN9ObjLoader7PolygonESaIS1_EE4sizeEv>
  405bb3:	48 39 c3             	cmp    %rax,%rbx
  405bb6:	0f 92 c0             	setb   %al
  405bb9:	84 c0                	test   %al,%al
  405bbb:	0f 84 7c 01 00 00    	je     405d3d <_ZN9ObjLoader4loadEPKc+0x609>
  405bc1:	8b 45 d4             	mov    -0x2c(%rbp),%eax
  405bc4:	48 8b 95 58 f6 ff ff 	mov    -0x9a8(%rbp),%rdx
  405bcb:	48 83 c2 50          	add    $0x50,%rdx
  405bcf:	48 89 c6             	mov    %rax,%rsi
  405bd2:	48 89 d7             	mov    %rdx,%rdi
  405bd5:	e8 3e 05 00 00       	callq  406118 <_ZNSt6vectorIN9ObjLoader7PolygonESaIS1_EEixEm>
  405bda:	48 89 45 c0          	mov    %rax,-0x40(%rbp)
  405bde:	c7 45 d0 00 00 00 00 	movl   $0x0,-0x30(%rbp)
  405be5:	8b 5d d0             	mov    -0x30(%rbp),%ebx
  405be8:	48 8b 45 c0          	mov    -0x40(%rbp),%rax
  405bec:	48 83 c0 08          	add    $0x8,%rax
  405bf0:	48 89 c7             	mov    %rax,%rdi
  405bf3:	e8 40 05 00 00       	callq  406138 <_ZNKSt6vectorIN9ObjLoader13VertexIndicesESaIS1_EE4sizeEv>
  405bf8:	48 39 c3             	cmp    %rax,%rbx
  405bfb:	0f 92 c0             	setb   %al
  405bfe:	84 c0                	test   %al,%al
  405c00:	0f 84 11 01 00 00    	je     405d17 <_ZN9ObjLoader4loadEPKc+0x5e3>
  405c06:	8b 45 d0             	mov    -0x30(%rbp),%eax
  405c09:	48 8b 55 c0          	mov    -0x40(%rbp),%rdx
  405c0d:	48 83 c2 08          	add    $0x8,%rdx
  405c11:	48 89 c6             	mov    %rax,%rsi
  405c14:	48 89 d7             	mov    %rdx,%rdi
  405c17:	e8 54 05 00 00       	callq  406170 <_ZNKSt6vectorIN9ObjLoader13VertexIndicesESaIS1_EEixEm>
  405c1c:	8b 00                	mov    (%rax),%eax
  405c1e:	85 c0                	test   %eax,%eax
  405c20:	78 2f                	js     405c51 <_ZN9ObjLoader4loadEPKc+0x51d>
  405c22:	8b 45 d0             	mov    -0x30(%rbp),%eax
  405c25:	48 8b 55 c0          	mov    -0x40(%rbp),%rdx
  405c29:	48 83 c2 08          	add    $0x8,%rdx
  405c2d:	48 89 c6             	mov    %rax,%rsi
  405c30:	48 89 d7             	mov    %rdx,%rdi
  405c33:	e8 38 05 00 00       	callq  406170 <_ZNKSt6vectorIN9ObjLoader13VertexIndicesESaIS1_EEixEm>
  405c38:	8b 18                	mov    (%rax),%ebx
  405c3a:	48 8b 85 58 f6 ff ff 	mov    -0x9a8(%rbp),%rax
  405c41:	48 83 c0 08          	add    $0x8,%rax
  405c45:	48 89 c7             	mov    %rax,%rdi
  405c48:	e8 4d 05 00 00       	callq  40619a <_ZNKSt6vectorIN9ObjLoader7Vector3ESaIS1_EE4sizeEv>
  405c4d:	39 c3                	cmp    %eax,%ebx
  405c4f:	7c 1f                	jl     405c70 <_ZN9ObjLoader4loadEPKc+0x53c>
  405c51:	48 8d 0d e8 1e 03 00 	lea    0x31ee8(%rip),%rcx        # 437b40 <_ZZN9ObjLoader4loadEPKcE19__PRETTY_FUNCTION__>
  405c58:	ba 7b 00 00 00       	mov    $0x7b,%edx
  405c5d:	48 8d 35 19 1e 03 00 	lea    0x31e19(%rip),%rsi        # 437a7d <_ZStL19piecewise_construct+0x3d>
  405c64:	48 8d 3d 25 1e 03 00 	lea    0x31e25(%rip),%rdi        # 437a90 <_ZStL19piecewise_construct+0x50>
  405c6b:	e8 90 db ff ff       	callq  403800 <__assert_fail@plt>
  405c70:	8b 45 d0             	mov    -0x30(%rbp),%eax
  405c73:	48 8b 55 c0          	mov    -0x40(%rbp),%rdx
  405c77:	48 83 c2 08          	add    $0x8,%rdx
  405c7b:	48 89 c6             	mov    %rax,%rsi
  405c7e:	48 89 d7             	mov    %rdx,%rdi
  405c81:	e8 ea 04 00 00       	callq  406170 <_ZNKSt6vectorIN9ObjLoader13VertexIndicesESaIS1_EEixEm>
  405c86:	8b 58 08             	mov    0x8(%rax),%ebx
  405c89:	48 8b 85 58 f6 ff ff 	mov    -0x9a8(%rbp),%rax
  405c90:	48 83 c0 38          	add    $0x38,%rax
  405c94:	48 89 c7             	mov    %rax,%rdi
  405c97:	e8 fe 04 00 00       	callq  40619a <_ZNKSt6vectorIN9ObjLoader7Vector3ESaIS1_EE4sizeEv>
  405c9c:	39 c3                	cmp    %eax,%ebx
  405c9e:	7c 1f                	jl     405cbf <_ZN9ObjLoader4loadEPKc+0x58b>
  405ca0:	48 8d 0d 99 1e 03 00 	lea    0x31e99(%rip),%rcx        # 437b40 <_ZZN9ObjLoader4loadEPKcE19__PRETTY_FUNCTION__>
  405ca7:	ba 7c 00 00 00       	mov    $0x7c,%edx
  405cac:	48 8d 35 ca 1d 03 00 	lea    0x31dca(%rip),%rsi        # 437a7d <_ZStL19piecewise_construct+0x3d>
  405cb3:	48 8d 3d 16 1e 03 00 	lea    0x31e16(%rip),%rdi        # 437ad0 <_ZStL19piecewise_construct+0x90>
  405cba:	e8 41 db ff ff       	callq  403800 <__assert_fail@plt>
  405cbf:	8b 45 d0             	mov    -0x30(%rbp),%eax
  405cc2:	48 8b 55 c0          	mov    -0x40(%rbp),%rdx
  405cc6:	48 83 c2 08          	add    $0x8,%rdx
  405cca:	48 89 c6             	mov    %rax,%rsi
  405ccd:	48 89 d7             	mov    %rdx,%rdi
  405cd0:	e8 9b 04 00 00       	callq  406170 <_ZNKSt6vectorIN9ObjLoader13VertexIndicesESaIS1_EEixEm>
  405cd5:	8b 58 04             	mov    0x4(%rax),%ebx
  405cd8:	48 8b 85 58 f6 ff ff 	mov    -0x9a8(%rbp),%rax
  405cdf:	48 83 c0 20          	add    $0x20,%rax
  405ce3:	48 89 c7             	mov    %rax,%rdi
  405ce6:	e8 af 04 00 00       	callq  40619a <_ZNKSt6vectorIN9ObjLoader7Vector3ESaIS1_EE4sizeEv>
  405ceb:	39 c3                	cmp    %eax,%ebx
  405ced:	7c 1f                	jl     405d0e <_ZN9ObjLoader4loadEPKc+0x5da>
  405cef:	48 8d 0d 4a 1e 03 00 	lea    0x31e4a(%rip),%rcx        # 437b40 <_ZZN9ObjLoader4loadEPKcE19__PRETTY_FUNCTION__>
  405cf6:	ba 7d 00 00 00       	mov    $0x7d,%edx
  405cfb:	48 8d 35 7b 1d 03 00 	lea    0x31d7b(%rip),%rsi        # 437a7d <_ZStL19piecewise_construct+0x3d>
  405d02:	48 8d 3d ef 1d 03 00 	lea    0x31def(%rip),%rdi        # 437af8 <_ZStL19piecewise_construct+0xb8>
  405d09:	e8 f2 da ff ff       	callq  403800 <__assert_fail@plt>
  405d0e:	83 45 d0 01          	addl   $0x1,-0x30(%rbp)
  405d12:	e9 ce fe ff ff       	jmpq   405be5 <_ZN9ObjLoader4loadEPKc+0x4b1>
  405d17:	83 45 d4 01          	addl   $0x1,-0x2c(%rbp)
  405d1b:	e9 7d fe ff ff       	jmpq   405b9d <_ZN9ObjLoader4loadEPKc+0x469>
  405d20:	48 89 c3             	mov    %rax,%rbx
  405d23:	48 8d 85 60 f6 ff ff 	lea    -0x9a0(%rbp),%rax
  405d2a:	48 89 c7             	mov    %rax,%rdi
  405d2d:	e8 0c 01 00 00       	callq  405e3e <_ZN9ObjLoader7PolygonD1Ev>
  405d32:	48 89 d8             	mov    %rbx,%rax
  405d35:	48 89 c7             	mov    %rax,%rdi
  405d38:	e8 c3 e0 ff ff       	callq  403e00 <_Unwind_Resume@plt>
  405d3d:	48 81 c4 a8 09 00 00 	add    $0x9a8,%rsp
  405d44:	5b                   	pop    %rbx
  405d45:	5d                   	pop    %rbp
  405d46:	c3                   	retq   
  405d47:	90                   	nop

0000000000405d48 <_ZN9ObjLoader5scaleEf>:
  405d48:	55                   	push   %rbp
  405d49:	48 89 e5             	mov    %rsp,%rbp
  405d4c:	53                   	push   %rbx
  405d4d:	48 83 ec 28          	sub    $0x28,%rsp
  405d51:	48 89 7d d8          	mov    %rdi,-0x28(%rbp)
  405d55:	f3 0f 11 45 d4       	movss  %xmm0,-0x2c(%rbp)
  405d5a:	c7 45 ec 00 00 00 00 	movl   $0x0,-0x14(%rbp)
  405d61:	8b 5d ec             	mov    -0x14(%rbp),%ebx
  405d64:	48 8b 45 d8          	mov    -0x28(%rbp),%rax
  405d68:	48 83 c0 08          	add    $0x8,%rax
  405d6c:	48 89 c7             	mov    %rax,%rdi
  405d6f:	e8 26 04 00 00       	callq  40619a <_ZNKSt6vectorIN9ObjLoader7Vector3ESaIS1_EE4sizeEv>
  405d74:	48 39 c3             	cmp    %rax,%rbx
  405d77:	0f 92 c0             	setb   %al
  405d7a:	84 c0                	test   %al,%al
  405d7c:	74 76                	je     405df4 <_ZN9ObjLoader5scaleEf+0xac>
  405d7e:	8b 45 ec             	mov    -0x14(%rbp),%eax
  405d81:	48 8b 55 d8          	mov    -0x28(%rbp),%rdx
  405d85:	48 83 c2 08          	add    $0x8,%rdx
  405d89:	48 89 c6             	mov    %rax,%rsi
  405d8c:	48 89 d7             	mov    %rdx,%rdi
  405d8f:	e8 3e 04 00 00       	callq  4061d2 <_ZNSt6vectorIN9ObjLoader7Vector3ESaIS1_EEixEm>
  405d94:	f3 0f 10 00          	movss  (%rax),%xmm0
  405d98:	f3 0f 59 45 d4       	mulss  -0x2c(%rbp),%xmm0
  405d9d:	f3 0f 11 00          	movss  %xmm0,(%rax)
  405da1:	8b 45 ec             	mov    -0x14(%rbp),%eax
  405da4:	48 8b 55 d8          	mov    -0x28(%rbp),%rdx
  405da8:	48 83 c2 08          	add    $0x8,%rdx
  405dac:	48 89 c6             	mov    %rax,%rsi
  405daf:	48 89 d7             	mov    %rdx,%rdi
  405db2:	e8 1b 04 00 00       	callq  4061d2 <_ZNSt6vectorIN9ObjLoader7Vector3ESaIS1_EEixEm>
  405db7:	f3 0f 10 40 04       	movss  0x4(%rax),%xmm0
  405dbc:	f3 0f 59 45 d4       	mulss  -0x2c(%rbp),%xmm0
  405dc1:	f3 0f 11 40 04       	movss  %xmm0,0x4(%rax)
  405dc6:	8b 45 ec             	mov    -0x14(%rbp),%eax
  405dc9:	48 8b 55 d8          	mov    -0x28(%rbp),%rdx
  405dcd:	48 83 c2 08          	add    $0x8,%rdx
  405dd1:	48 89 c6             	mov    %rax,%rsi
  405dd4:	48 89 d7             	mov    %rdx,%rdi
  405dd7:	e8 f6 03 00 00       	callq  4061d2 <_ZNSt6vectorIN9ObjLoader7Vector3ESaIS1_EEixEm>
  405ddc:	f3 0f 10 40 08       	movss  0x8(%rax),%xmm0
  405de1:	f3 0f 59 45 d4       	mulss  -0x2c(%rbp),%xmm0
  405de6:	f3 0f 11 40 08       	movss  %xmm0,0x8(%rax)
  405deb:	83 45 ec 01          	addl   $0x1,-0x14(%rbp)
  405def:	e9 6d ff ff ff       	jmpq   405d61 <_ZN9ObjLoader5scaleEf+0x19>
  405df4:	90                   	nop
  405df5:	48 83 c4 28          	add    $0x28,%rsp
  405df9:	5b                   	pop    %rbx
  405dfa:	5d                   	pop    %rbp
  405dfb:	c3                   	retq   

0000000000405dfc <_ZnwmPv>:
  405dfc:	55                   	push   %rbp
  405dfd:	48 89 e5             	mov    %rsp,%rbp
  405e00:	48 89 7d f8          	mov    %rdi,-0x8(%rbp)
  405e04:	48 89 75 f0          	mov    %rsi,-0x10(%rbp)
  405e08:	48 8b 45 f0          	mov    -0x10(%rbp),%rax
  405e0c:	5d                   	pop    %rbp
  405e0d:	c3                   	retq   

0000000000405e0e <_ZdlPvS_>:
  405e0e:	55                   	push   %rbp
  405e0f:	48 89 e5             	mov    %rsp,%rbp
  405e12:	48 89 7d f8          	mov    %rdi,-0x8(%rbp)
  405e16:	48 89 75 f0          	mov    %rsi,-0x10(%rbp)
  405e1a:	90                   	nop
  405e1b:	5d                   	pop    %rbp
  405e1c:	c3                   	retq   
  405e1d:	90                   	nop

0000000000405e1e <_ZN9ObjLoader7PolygonC1Ev>:
  405e1e:	55                   	push   %rbp
  405e1f:	48 89 e5             	mov    %rsp,%rbp
  405e22:	48 83 ec 10          	sub    $0x10,%rsp
  405e26:	48 89 7d f8          	mov    %rdi,-0x8(%rbp)
  405e2a:	48 8b 45 f8          	mov    -0x8(%rbp),%rax
  405e2e:	48 83 c0 08          	add    $0x8,%rax
  405e32:	48 89 c7             	mov    %rax,%rdi
  405e35:	e8 60 01 00 00       	callq  405f9a <_ZNSt6vectorIN9ObjLoader13VertexIndicesESaIS1_EEC1Ev>
  405e3a:	90                   	nop
  405e3b:	c9                   	leaveq 
  405e3c:	c3                   	retq   
  405e3d:	90                   	nop

0000000000405e3e <_ZN9ObjLoader7PolygonD1Ev>:
  405e3e:	55                   	push   %rbp
  405e3f:	48 89 e5             	mov    %rsp,%rbp
  405e42:	48 83 ec 10          	sub    $0x10,%rsp
  405e46:	48 89 7d f8          	mov    %rdi,-0x8(%rbp)
  405e4a:	48 8b 45 f8          	mov    -0x8(%rbp),%rax
  405e4e:	48 83 c0 08          	add    $0x8,%rax
  405e52:	48 89 c7             	mov    %rax,%rdi
  405e55:	e8 5c 01 00 00       	callq  405fb6 <_ZNSt6vectorIN9ObjLoader13VertexIndicesESaIS1_EED1Ev>
  405e5a:	90                   	nop
  405e5b:	c9                   	leaveq 
  405e5c:	c3                   	retq   
  405e5d:	90                   	nop

0000000000405e5e <_ZNSt6vectorIN9ObjLoader7Vector3ESaIS1_EEC1Ev>:
  405e5e:	55                   	push   %rbp
  405e5f:	48 89 e5             	mov    %rsp,%rbp
  405e62:	48 83 ec 10          	sub    $0x10,%rsp
  405e66:	48 89 7d f8          	mov    %rdi,-0x8(%rbp)
  405e6a:	48 8b 45 f8          	mov    -0x8(%rbp),%rax
  405e6e:	48 89 c7             	mov    %rax,%rdi
  405e71:	e8 a2 03 00 00       	callq  406218 <_ZNSt12_Vector_baseIN9ObjLoader7Vector3ESaIS1_EEC1Ev>
  405e76:	90                   	nop
  405e77:	c9                   	leaveq 
  405e78:	c3                   	retq   
  405e79:	90                   	nop

0000000000405e7a <_ZNSt6vectorIN9ObjLoader7Vector3ESaIS1_EED1Ev>:
  405e7a:	55                   	push   %rbp
  405e7b:	48 89 e5             	mov    %rsp,%rbp
  405e7e:	48 83 ec 10          	sub    $0x10,%rsp
  405e82:	48 89 7d f8          	mov    %rdi,-0x8(%rbp)
  405e86:	48 8b 45 f8          	mov    -0x8(%rbp),%rax
  405e8a:	48 89 c7             	mov    %rax,%rdi
  405e8d:	e8 04 04 00 00       	callq  406296 <_ZNSt12_Vector_baseIN9ObjLoader7Vector3ESaIS1_EE19_M_get_Tp_allocatorEv>
  405e92:	48 89 c2             	mov    %rax,%rdx
  405e95:	48 8b 45 f8          	mov    -0x8(%rbp),%rax
  405e99:	48 8b 48 08          	mov    0x8(%rax),%rcx
  405e9d:	48 8b 45 f8          	mov    -0x8(%rbp),%rax
  405ea1:	48 8b 00             	mov    (%rax),%rax
  405ea4:	48 89 ce             	mov    %rcx,%rsi
  405ea7:	48 89 c7             	mov    %rax,%rdi
  405eaa:	e8 f5 03 00 00       	callq  4062a4 <_ZSt8_DestroyIPN9ObjLoader7Vector3ES1_EvT_S3_RSaIT0_E>
  405eaf:	48 8b 45 f8          	mov    -0x8(%rbp),%rax
  405eb3:	48 89 c7             	mov    %rax,%rdi
  405eb6:	e8 79 03 00 00       	callq  406234 <_ZNSt12_Vector_baseIN9ObjLoader7Vector3ESaIS1_EED1Ev>
  405ebb:	90                   	nop
  405ebc:	c9                   	leaveq 
  405ebd:	c3                   	retq   

0000000000405ebe <_ZNSt6vectorIN9ObjLoader7PolygonESaIS1_EEC1Ev>:
  405ebe:	55                   	push   %rbp
  405ebf:	48 89 e5             	mov    %rsp,%rbp
  405ec2:	48 83 ec 10          	sub    $0x10,%rsp
  405ec6:	48 89 7d f8          	mov    %rdi,-0x8(%rbp)
  405eca:	48 8b 45 f8          	mov    -0x8(%rbp),%rax
  405ece:	48 89 c7             	mov    %rax,%rdi
  405ed1:	e8 14 04 00 00       	callq  4062ea <_ZNSt12_Vector_baseIN9ObjLoader7PolygonESaIS1_EEC1Ev>
  405ed6:	90                   	nop
  405ed7:	c9                   	leaveq 
  405ed8:	c3                   	retq   
  405ed9:	90                   	nop

0000000000405eda <_ZNSt6vectorIN9ObjLoader7PolygonESaIS1_EED1Ev>:
  405eda:	55                   	push   %rbp
  405edb:	48 89 e5             	mov    %rsp,%rbp
  405ede:	48 83 ec 10          	sub    $0x10,%rsp
  405ee2:	48 89 7d f8          	mov    %rdi,-0x8(%rbp)
  405ee6:	48 8b 45 f8          	mov    -0x8(%rbp),%rax
  405eea:	48 89 c7             	mov    %rax,%rdi
  405eed:	e8 64 04 00 00       	callq  406356 <_ZNSt12_Vector_baseIN9ObjLoader7PolygonESaIS1_EE19_M_get_Tp_allocatorEv>
  405ef2:	48 89 c2             	mov    %rax,%rdx
  405ef5:	48 8b 45 f8          	mov    -0x8(%rbp),%rax
  405ef9:	48 8b 48 08          	mov    0x8(%rax),%rcx
  405efd:	48 8b 45 f8          	mov    -0x8(%rbp),%rax
  405f01:	48 8b 00             	mov    (%rax),%rax
  405f04:	48 89 ce             	mov    %rcx,%rsi
  405f07:	48 89 c7             	mov    %rax,%rdi
  405f0a:	e8 55 04 00 00       	callq  406364 <_ZSt8_DestroyIPN9ObjLoader7PolygonES1_EvT_S3_RSaIT0_E>
  405f0f:	48 8b 45 f8          	mov    -0x8(%rbp),%rax
  405f13:	48 89 c7             	mov    %rax,%rdi
  405f16:	e8 eb 03 00 00       	callq  406306 <_ZNSt12_Vector_baseIN9ObjLoader7PolygonESaIS1_EED1Ev>
  405f1b:	90                   	nop
  405f1c:	c9                   	leaveq 
  405f1d:	c3                   	retq   

0000000000405f1e <_ZNSt6vectorIN9ObjLoader7Vector3ESaIS1_EE9push_backERKS1_>:
  405f1e:	55                   	push   %rbp
  405f1f:	48 89 e5             	mov    %rsp,%rbp
  405f22:	48 83 ec 10          	sub    $0x10,%rsp
  405f26:	48 89 7d f8          	mov    %rdi,-0x8(%rbp)
  405f2a:	48 89 75 f0          	mov    %rsi,-0x10(%rbp)
  405f2e:	48 8b 45 f8          	mov    -0x8(%rbp),%rax
  405f32:	48 8b 50 08          	mov    0x8(%rax),%rdx
  405f36:	48 8b 45 f8          	mov    -0x8(%rbp),%rax
  405f3a:	48 8b 40 10          	mov    0x10(%rax),%rax
  405f3e:	48 39 c2             	cmp    %rax,%rdx
  405f41:	74 31                	je     405f74 <_ZNSt6vectorIN9ObjLoader7Vector3ESaIS1_EE9push_backERKS1_+0x56>
  405f43:	48 8b 45 f8          	mov    -0x8(%rbp),%rax
  405f47:	48 8b 48 08          	mov    0x8(%rax),%rcx
  405f4b:	48 8b 45 f8          	mov    -0x8(%rbp),%rax
  405f4f:	48 8b 55 f0          	mov    -0x10(%rbp),%rdx
  405f53:	48 89 ce             	mov    %rcx,%rsi
  405f56:	48 89 c7             	mov    %rax,%rdi
  405f59:	e8 3e 04 00 00       	callq  40639c <_ZNSt16allocator_traitsISaIN9ObjLoader7Vector3EEE9constructIS1_JRKS1_EEEvRS2_PT_DpOT0_>
  405f5e:	48 8b 45 f8          	mov    -0x8(%rbp),%rax
  405f62:	48 8b 40 08          	mov    0x8(%rax),%rax
  405f66:	48 8d 50 0c          	lea    0xc(%rax),%rdx
  405f6a:	48 8b 45 f8          	mov    -0x8(%rbp),%rax
  405f6e:	48 89 50 08          	mov    %rdx,0x8(%rax)
  405f72:	eb 22                	jmp    405f96 <_ZNSt6vectorIN9ObjLoader7Vector3ESaIS1_EE9push_backERKS1_+0x78>
  405f74:	48 8b 45 f8          	mov    -0x8(%rbp),%rax
  405f78:	48 89 c7             	mov    %rax,%rdi
  405f7b:	e8 56 04 00 00       	callq  4063d6 <_ZNSt6vectorIN9ObjLoader7Vector3ESaIS1_EE3endEv>
  405f80:	48 89 c1             	mov    %rax,%rcx
  405f83:	48 8b 55 f0          	mov    -0x10(%rbp),%rdx
  405f87:	48 8b 45 f8          	mov    -0x8(%rbp),%rax
  405f8b:	48 89 ce             	mov    %rcx,%rsi
  405f8e:	48 89 c7             	mov    %rax,%rdi
  405f91:	e8 6a 04 00 00       	callq  406400 <_ZNSt6vectorIN9ObjLoader7Vector3ESaIS1_EE17_M_realloc_insertIJRKS1_EEEvN9__gnu_cxx17__normal_iteratorIPS1_S3_EEDpOT_>
  405f96:	90                   	nop
  405f97:	c9                   	leaveq 
  405f98:	c3                   	retq   
  405f99:	90                   	nop

0000000000405f9a <_ZNSt6vectorIN9ObjLoader13VertexIndicesESaIS1_EEC1Ev>:
  405f9a:	55                   	push   %rbp
  405f9b:	48 89 e5             	mov    %rsp,%rbp
  405f9e:	48 83 ec 10          	sub    $0x10,%rsp
  405fa2:	48 89 7d f8          	mov    %rdi,-0x8(%rbp)
  405fa6:	48 8b 45 f8          	mov    -0x8(%rbp),%rax
  405faa:	48 89 c7             	mov    %rax,%rdi
  405fad:	e8 e8 06 00 00       	callq  40669a <_ZNSt12_Vector_baseIN9ObjLoader13VertexIndicesESaIS1_EEC1Ev>
  405fb2:	90                   	nop
  405fb3:	c9                   	leaveq 
  405fb4:	c3                   	retq   
  405fb5:	90                   	nop

0000000000405fb6 <_ZNSt6vectorIN9ObjLoader13VertexIndicesESaIS1_EED1Ev>:
  405fb6:	55                   	push   %rbp
  405fb7:	48 89 e5             	mov    %rsp,%rbp
  405fba:	48 83 ec 10          	sub    $0x10,%rsp
  405fbe:	48 89 7d f8          	mov    %rdi,-0x8(%rbp)
  405fc2:	48 8b 45 f8          	mov    -0x8(%rbp),%rax
  405fc6:	48 89 c7             	mov    %rax,%rdi
  405fc9:	e8 4a 07 00 00       	callq  406718 <_ZNSt12_Vector_baseIN9ObjLoader13VertexIndicesESaIS1_EE19_M_get_Tp_allocatorEv>
  405fce:	48 89 c2             	mov    %rax,%rdx
  405fd1:	48 8b 45 f8          	mov    -0x8(%rbp),%rax
  405fd5:	48 8b 48 08          	mov    0x8(%rax),%rcx
  405fd9:	48 8b 45 f8          	mov    -0x8(%rbp),%rax
  405fdd:	48 8b 00             	mov    (%rax),%rax
  405fe0:	48 89 ce             	mov    %rcx,%rsi
  405fe3:	48 89 c7             	mov    %rax,%rdi
  405fe6:	e8 3b 07 00 00       	callq  406726 <_ZSt8_DestroyIPN9ObjLoader13VertexIndicesES1_EvT_S3_RSaIT0_E>
  405feb:	48 8b 45 f8          	mov    -0x8(%rbp),%rax
  405fef:	48 89 c7             	mov    %rax,%rdi
  405ff2:	e8 bf 06 00 00       	callq  4066b6 <_ZNSt12_Vector_baseIN9ObjLoader13VertexIndicesESaIS1_EED1Ev>
  405ff7:	90                   	nop
  405ff8:	c9                   	leaveq 
  405ff9:	c3                   	retq   

0000000000405ffa <_ZNSt6vectorIN9ObjLoader13VertexIndicesESaIS1_EE9push_backERKS1_>:
  405ffa:	55                   	push   %rbp
  405ffb:	48 89 e5             	mov    %rsp,%rbp
  405ffe:	48 83 ec 10          	sub    $0x10,%rsp
  406002:	48 89 7d f8          	mov    %rdi,-0x8(%rbp)
  406006:	48 89 75 f0          	mov    %rsi,-0x10(%rbp)
  40600a:	48 8b 45 f8          	mov    -0x8(%rbp),%rax
  40600e:	48 8b 50 08          	mov    0x8(%rax),%rdx
  406012:	48 8b 45 f8          	mov    -0x8(%rbp),%rax
  406016:	48 8b 40 10          	mov    0x10(%rax),%rax
  40601a:	48 39 c2             	cmp    %rax,%rdx
  40601d:	74 31                	je     406050 <_ZNSt6vectorIN9ObjLoader13VertexIndicesESaIS1_EE9push_backERKS1_+0x56>
  40601f:	48 8b 45 f8          	mov    -0x8(%rbp),%rax
  406023:	48 8b 48 08          	mov    0x8(%rax),%rcx
  406027:	48 8b 45 f8          	mov    -0x8(%rbp),%rax
  40602b:	48 8b 55 f0          	mov    -0x10(%rbp),%rdx
  40602f:	48 89 ce             	mov    %rcx,%rsi
  406032:	48 89 c7             	mov    %rax,%rdi
  406035:	e8 24 07 00 00       	callq  40675e <_ZNSt16allocator_traitsISaIN9ObjLoader13VertexIndicesEEE9constructIS1_JRKS1_EEEvRS2_PT_DpOT0_>
  40603a:	48 8b 45 f8          	mov    -0x8(%rbp),%rax
  40603e:	48 8b 40 08          	mov    0x8(%rax),%rax
  406042:	48 8d 50 0c          	lea    0xc(%rax),%rdx
  406046:	48 8b 45 f8          	mov    -0x8(%rbp),%rax
  40604a:	48 89 50 08          	mov    %rdx,0x8(%rax)
  40604e:	eb 22                	jmp    406072 <_ZNSt6vectorIN9ObjLoader13VertexIndicesESaIS1_EE9push_backERKS1_+0x78>
  406050:	48 8b 45 f8          	mov    -0x8(%rbp),%rax
  406054:	48 89 c7             	mov    %rax,%rdi
  406057:	e8 3c 07 00 00       	callq  406798 <_ZNSt6vectorIN9ObjLoader13VertexIndicesESaIS1_EE3endEv>
  40605c:	48 89 c1             	mov    %rax,%rcx
  40605f:	48 8b 55 f0          	mov    -0x10(%rbp),%rdx
  406063:	48 8b 45 f8          	mov    -0x8(%rbp),%rax
  406067:	48 89 ce             	mov    %rcx,%rsi
  40606a:	48 89 c7             	mov    %rax,%rdi
  40606d:	e8 50 07 00 00       	callq  4067c2 <_ZNSt6vectorIN9ObjLoader13VertexIndicesESaIS1_EE17_M_realloc_insertIJRKS1_EEEvN9__gnu_cxx17__normal_iteratorIPS1_S3_EEDpOT_>
  406072:	90                   	nop
  406073:	c9                   	leaveq 
  406074:	c3                   	retq   
  406075:	90                   	nop

0000000000406076 <_ZNSt6vectorIN9ObjLoader7PolygonESaIS1_EE9push_backERKS1_>:
  406076:	55                   	push   %rbp
  406077:	48 89 e5             	mov    %rsp,%rbp
  40607a:	48 83 ec 10          	sub    $0x10,%rsp
  40607e:	48 89 7d f8          	mov    %rdi,-0x8(%rbp)
  406082:	48 89 75 f0          	mov    %rsi,-0x10(%rbp)
  406086:	48 8b 45 f8          	mov    -0x8(%rbp),%rax
  40608a:	48 8b 50 08          	mov    0x8(%rax),%rdx
  40608e:	48 8b 45 f8          	mov    -0x8(%rbp),%rax
  406092:	48 8b 40 10          	mov    0x10(%rax),%rax
  406096:	48 39 c2             	cmp    %rax,%rdx
  406099:	74 31                	je     4060cc <_ZNSt6vectorIN9ObjLoader7PolygonESaIS1_EE9push_backERKS1_+0x56>
  40609b:	48 8b 45 f8          	mov    -0x8(%rbp),%rax
  40609f:	48 8b 48 08          	mov    0x8(%rax),%rcx
  4060a3:	48 8b 45 f8          	mov    -0x8(%rbp),%rax
  4060a7:	48 8b 55 f0          	mov    -0x10(%rbp),%rdx
  4060ab:	48 89 ce             	mov    %rcx,%rsi
  4060ae:	48 89 c7             	mov    %rax,%rdi
  4060b1:	e8 97 09 00 00       	callq  406a4d <_ZNSt16allocator_traitsISaIN9ObjLoader7PolygonEEE9constructIS1_JRKS1_EEEvRS2_PT_DpOT0_>
  4060b6:	48 8b 45 f8          	mov    -0x8(%rbp),%rax
  4060ba:	48 8b 40 08          	mov    0x8(%rax),%rax
  4060be:	48 8d 50 20          	lea    0x20(%rax),%rdx
  4060c2:	48 8b 45 f8          	mov    -0x8(%rbp),%rax
  4060c6:	48 89 50 08          	mov    %rdx,0x8(%rax)
  4060ca:	eb 22                	jmp    4060ee <_ZNSt6vectorIN9ObjLoader7PolygonESaIS1_EE9push_backERKS1_+0x78>
  4060cc:	48 8b 45 f8          	mov    -0x8(%rbp),%rax
  4060d0:	48 89 c7             	mov    %rax,%rdi
  4060d3:	e8 ae 09 00 00       	callq  406a86 <_ZNSt6vectorIN9ObjLoader7PolygonESaIS1_EE3endEv>
  4060d8:	48 89 c1             	mov    %rax,%rcx
  4060db:	48 8b 55 f0          	mov    -0x10(%rbp),%rdx
  4060df:	48 8b 45 f8          	mov    -0x8(%rbp),%rax
  4060e3:	48 89 ce             	mov    %rcx,%rsi
  4060e6:	48 89 c7             	mov    %rax,%rdi
  4060e9:	e8 c2 09 00 00       	callq  406ab0 <_ZNSt6vectorIN9ObjLoader7PolygonESaIS1_EE17_M_realloc_insertIJRKS1_EEEvN9__gnu_cxx17__normal_iteratorIPS1_S3_EEDpOT_>
  4060ee:	90                   	nop
  4060ef:	c9                   	leaveq 
  4060f0:	c3                   	retq   
  4060f1:	90                   	nop

00000000004060f2 <_ZNKSt6vectorIN9ObjLoader7PolygonESaIS1_EE4sizeEv>:
  4060f2:	55                   	push   %rbp
  4060f3:	48 89 e5             	mov    %rsp,%rbp
  4060f6:	48 89 7d f8          	mov    %rdi,-0x8(%rbp)
  4060fa:	48 8b 45 f8          	mov    -0x8(%rbp),%rax
  4060fe:	48 8b 40 08          	mov    0x8(%rax),%rax
  406102:	48 89 c2             	mov    %rax,%rdx
  406105:	48 8b 45 f8          	mov    -0x8(%rbp),%rax
  406109:	48 8b 00             	mov    (%rax),%rax
  40610c:	48 29 c2             	sub    %rax,%rdx
  40610f:	48 89 d0             	mov    %rdx,%rax
  406112:	48 c1 f8 05          	sar    $0x5,%rax
  406116:	5d                   	pop    %rbp
  406117:	c3                   	retq   

0000000000406118 <_ZNSt6vectorIN9ObjLoader7PolygonESaIS1_EEixEm>:
  406118:	55                   	push   %rbp
  406119:	48 89 e5             	mov    %rsp,%rbp
  40611c:	48 89 7d f8          	mov    %rdi,-0x8(%rbp)
  406120:	48 89 75 f0          	mov    %rsi,-0x10(%rbp)
  406124:	48 8b 45 f8          	mov    -0x8(%rbp),%rax
  406128:	48 8b 00             	mov    (%rax),%rax
  40612b:	48 8b 55 f0          	mov    -0x10(%rbp),%rdx
  40612f:	48 c1 e2 05          	shl    $0x5,%rdx
  406133:	48 01 d0             	add    %rdx,%rax
  406136:	5d                   	pop    %rbp
  406137:	c3                   	retq   

0000000000406138 <_ZNKSt6vectorIN9ObjLoader13VertexIndicesESaIS1_EE4sizeEv>:
  406138:	55                   	push   %rbp
  406139:	48 89 e5             	mov    %rsp,%rbp
  40613c:	48 89 7d f8          	mov    %rdi,-0x8(%rbp)
  406140:	48 8b 45 f8          	mov    -0x8(%rbp),%rax
  406144:	48 8b 40 08          	mov    0x8(%rax),%rax
  406148:	48 89 c2             	mov    %rax,%rdx
  40614b:	48 8b 45 f8          	mov    -0x8(%rbp),%rax
  40614f:	48 8b 00             	mov    (%rax),%rax
  406152:	48 29 c2             	sub    %rax,%rdx
  406155:	48 89 d0             	mov    %rdx,%rax
  406158:	48 c1 f8 02          	sar    $0x2,%rax
  40615c:	48 89 c2             	mov    %rax,%rdx
  40615f:	48 b8 ab aa aa aa aa 	movabs $0xaaaaaaaaaaaaaaab,%rax
  406166:	aa aa aa 
  406169:	48 0f af c2          	imul   %rdx,%rax
  40616d:	5d                   	pop    %rbp
  40616e:	c3                   	retq   
  40616f:	90                   	nop

0000000000406170 <_ZNKSt6vectorIN9ObjLoader13VertexIndicesESaIS1_EEixEm>:
  406170:	55                   	push   %rbp
  406171:	48 89 e5             	mov    %rsp,%rbp
  406174:	48 89 7d f8          	mov    %rdi,-0x8(%rbp)
  406178:	48 89 75 f0          	mov    %rsi,-0x10(%rbp)
  40617c:	48 8b 45 f8          	mov    -0x8(%rbp),%rax
  406180:	48 8b 08             	mov    (%rax),%rcx
  406183:	48 8b 55 f0          	mov    -0x10(%rbp),%rdx
  406187:	48 89 d0             	mov    %rdx,%rax
  40618a:	48 01 c0             	add    %rax,%rax
  40618d:	48 01 d0             	add    %rdx,%rax
  406190:	48 c1 e0 02          	shl    $0x2,%rax
  406194:	48 01 c8             	add    %rcx,%rax
  406197:	5d                   	pop    %rbp
  406198:	c3                   	retq   
  406199:	90                   	nop

000000000040619a <_ZNKSt6vectorIN9ObjLoader7Vector3ESaIS1_EE4sizeEv>:
  40619a:	55                   	push   %rbp
  40619b:	48 89 e5             	mov    %rsp,%rbp
  40619e:	48 89 7d f8          	mov    %rdi,-0x8(%rbp)
  4061a2:	48 8b 45 f8          	mov    -0x8(%rbp),%rax
  4061a6:	48 8b 40 08          	mov    0x8(%rax),%rax
  4061aa:	48 89 c2             	mov    %rax,%rdx
  4061ad:	48 8b 45 f8          	mov    -0x8(%rbp),%rax
  4061b1:	48 8b 00             	mov    (%rax),%rax
  4061b4:	48 29 c2             	sub    %rax,%rdx
  4061b7:	48 89 d0             	mov    %rdx,%rax
  4061ba:	48 c1 f8 02          	sar    $0x2,%rax
  4061be:	48 89 c2             	mov    %rax,%rdx
  4061c1:	48 b8 ab aa aa aa aa 	movabs $0xaaaaaaaaaaaaaaab,%rax
  4061c8:	aa aa aa 
  4061cb:	48 0f af c2          	imul   %rdx,%rax
  4061cf:	5d                   	pop    %rbp
  4061d0:	c3                   	retq   
  4061d1:	90                   	nop

00000000004061d2 <_ZNSt6vectorIN9ObjLoader7Vector3ESaIS1_EEixEm>:
  4061d2:	55                   	push   %rbp
  4061d3:	48 89 e5             	mov    %rsp,%rbp
  4061d6:	48 89 7d f8          	mov    %rdi,-0x8(%rbp)
  4061da:	48 89 75 f0          	mov    %rsi,-0x10(%rbp)
  4061de:	48 8b 45 f8          	mov    -0x8(%rbp),%rax
  4061e2:	48 8b 08             	mov    (%rax),%rcx
  4061e5:	48 8b 55 f0          	mov    -0x10(%rbp),%rdx
  4061e9:	48 89 d0             	mov    %rdx,%rax
  4061ec:	48 01 c0             	add    %rax,%rax
  4061ef:	48 01 d0             	add    %rdx,%rax
  4061f2:	48 c1 e0 02          	shl    $0x2,%rax
  4061f6:	48 01 c8             	add    %rcx,%rax
  4061f9:	5d                   	pop    %rbp
  4061fa:	c3                   	retq   
  4061fb:	90                   	nop

00000000004061fc <_ZNSt12_Vector_baseIN9ObjLoader7Vector3ESaIS1_EE12_Vector_implD1Ev>:
  4061fc:	55                   	push   %rbp
  4061fd:	48 89 e5             	mov    %rsp,%rbp
  406200:	48 83 ec 10          	sub    $0x10,%rsp
  406204:	48 89 7d f8          	mov    %rdi,-0x8(%rbp)
  406208:	48 8b 45 f8          	mov    -0x8(%rbp),%rax
  40620c:	48 89 c7             	mov    %rax,%rdi
  40620f:	e8 2c 0b 00 00       	callq  406d40 <_ZNSaIN9ObjLoader7Vector3EED1Ev>
  406214:	90                   	nop
  406215:	c9                   	leaveq 
  406216:	c3                   	retq   
  406217:	90                   	nop

0000000000406218 <_ZNSt12_Vector_baseIN9ObjLoader7Vector3ESaIS1_EEC1Ev>:
  406218:	55                   	push   %rbp
  406219:	48 89 e5             	mov    %rsp,%rbp
  40621c:	48 83 ec 10          	sub    $0x10,%rsp
  406220:	48 89 7d f8          	mov    %rdi,-0x8(%rbp)
  406224:	48 8b 45 f8          	mov    -0x8(%rbp),%rax
  406228:	48 89 c7             	mov    %rax,%rdi
  40622b:	e8 d2 0a 00 00       	callq  406d02 <_ZNSt12_Vector_baseIN9ObjLoader7Vector3ESaIS1_EE12_Vector_implC1Ev>
  406230:	90                   	nop
  406231:	c9                   	leaveq 
  406232:	c3                   	retq   
  406233:	90                   	nop

0000000000406234 <_ZNSt12_Vector_baseIN9ObjLoader7Vector3ESaIS1_EED1Ev>:
  406234:	55                   	push   %rbp
  406235:	48 89 e5             	mov    %rsp,%rbp
  406238:	48 83 ec 10          	sub    $0x10,%rsp
  40623c:	48 89 7d f8          	mov    %rdi,-0x8(%rbp)
  406240:	48 8b 45 f8          	mov    -0x8(%rbp),%rax
  406244:	48 8b 40 10          	mov    0x10(%rax),%rax
  406248:	48 89 c2             	mov    %rax,%rdx
  40624b:	48 8b 45 f8          	mov    -0x8(%rbp),%rax
  40624f:	48 8b 00             	mov    (%rax),%rax
  406252:	48 29 c2             	sub    %rax,%rdx
  406255:	48 89 d0             	mov    %rdx,%rax
  406258:	48 c1 f8 02          	sar    $0x2,%rax
  40625c:	48 89 c2             	mov    %rax,%rdx
  40625f:	48 b8 ab aa aa aa aa 	movabs $0xaaaaaaaaaaaaaaab,%rax
  406266:	aa aa aa 
  406269:	48 0f af c2          	imul   %rdx,%rax
  40626d:	48 89 c2             	mov    %rax,%rdx
  406270:	48 8b 45 f8          	mov    -0x8(%rbp),%rax
  406274:	48 8b 08             	mov    (%rax),%rcx
  406277:	48 8b 45 f8          	mov    -0x8(%rbp),%rax
  40627b:	48 89 ce             	mov    %rcx,%rsi
  40627e:	48 89 c7             	mov    %rax,%rdi
  406281:	e8 d6 0a 00 00       	callq  406d5c <_ZNSt12_Vector_baseIN9ObjLoader7Vector3ESaIS1_EE13_M_deallocateEPS1_m>
  406286:	48 8b 45 f8          	mov    -0x8(%rbp),%rax
  40628a:	48 89 c7             	mov    %rax,%rdi
  40628d:	e8 6a ff ff ff       	callq  4061fc <_ZNSt12_Vector_baseIN9ObjLoader7Vector3ESaIS1_EE12_Vector_implD1Ev>
  406292:	90                   	nop
  406293:	c9                   	leaveq 
  406294:	c3                   	retq   
  406295:	90                   	nop

0000000000406296 <_ZNSt12_Vector_baseIN9ObjLoader7Vector3ESaIS1_EE19_M_get_Tp_allocatorEv>:
  406296:	55                   	push   %rbp
  406297:	48 89 e5             	mov    %rsp,%rbp
  40629a:	48 89 7d f8          	mov    %rdi,-0x8(%rbp)
  40629e:	48 8b 45 f8          	mov    -0x8(%rbp),%rax
  4062a2:	5d                   	pop    %rbp
  4062a3:	c3                   	retq   

00000000004062a4 <_ZSt8_DestroyIPN9ObjLoader7Vector3ES1_EvT_S3_RSaIT0_E>:
  4062a4:	55                   	push   %rbp
  4062a5:	48 89 e5             	mov    %rsp,%rbp
  4062a8:	48 83 ec 20          	sub    $0x20,%rsp
  4062ac:	48 89 7d f8          	mov    %rdi,-0x8(%rbp)
  4062b0:	48 89 75 f0          	mov    %rsi,-0x10(%rbp)
  4062b4:	48 89 55 e8          	mov    %rdx,-0x18(%rbp)
  4062b8:	48 8b 55 f0          	mov    -0x10(%rbp),%rdx
  4062bc:	48 8b 45 f8          	mov    -0x8(%rbp),%rax
  4062c0:	48 89 d6             	mov    %rdx,%rsi
  4062c3:	48 89 c7             	mov    %rax,%rdi
  4062c6:	e8 c6 0a 00 00       	callq  406d91 <_ZSt8_DestroyIPN9ObjLoader7Vector3EEvT_S3_>
  4062cb:	90                   	nop
  4062cc:	c9                   	leaveq 
  4062cd:	c3                   	retq   

00000000004062ce <_ZNSt12_Vector_baseIN9ObjLoader7PolygonESaIS1_EE12_Vector_implD1Ev>:
  4062ce:	55                   	push   %rbp
  4062cf:	48 89 e5             	mov    %rsp,%rbp
  4062d2:	48 83 ec 10          	sub    $0x10,%rsp
  4062d6:	48 89 7d f8          	mov    %rdi,-0x8(%rbp)
  4062da:	48 8b 45 f8          	mov    -0x8(%rbp),%rax
  4062de:	48 89 c7             	mov    %rax,%rdi
  4062e1:	e8 10 0b 00 00       	callq  406df6 <_ZNSaIN9ObjLoader7PolygonEED1Ev>
  4062e6:	90                   	nop
  4062e7:	c9                   	leaveq 
  4062e8:	c3                   	retq   
  4062e9:	90                   	nop

00000000004062ea <_ZNSt12_Vector_baseIN9ObjLoader7PolygonESaIS1_EEC1Ev>:
  4062ea:	55                   	push   %rbp
  4062eb:	48 89 e5             	mov    %rsp,%rbp
  4062ee:	48 83 ec 10          	sub    $0x10,%rsp
  4062f2:	48 89 7d f8          	mov    %rdi,-0x8(%rbp)
  4062f6:	48 8b 45 f8          	mov    -0x8(%rbp),%rax
  4062fa:	48 89 c7             	mov    %rax,%rdi
  4062fd:	e8 b6 0a 00 00       	callq  406db8 <_ZNSt12_Vector_baseIN9ObjLoader7PolygonESaIS1_EE12_Vector_implC1Ev>
  406302:	90                   	nop
  406303:	c9                   	leaveq 
  406304:	c3                   	retq   
  406305:	90                   	nop

0000000000406306 <_ZNSt12_Vector_baseIN9ObjLoader7PolygonESaIS1_EED1Ev>:
  406306:	55                   	push   %rbp
  406307:	48 89 e5             	mov    %rsp,%rbp
  40630a:	48 83 ec 10          	sub    $0x10,%rsp
  40630e:	48 89 7d f8          	mov    %rdi,-0x8(%rbp)
  406312:	48 8b 45 f8          	mov    -0x8(%rbp),%rax
  406316:	48 8b 40 10          	mov    0x10(%rax),%rax
  40631a:	48 89 c2             	mov    %rax,%rdx
  40631d:	48 8b 45 f8          	mov    -0x8(%rbp),%rax
  406321:	48 8b 00             	mov    (%rax),%rax
  406324:	48 29 c2             	sub    %rax,%rdx
  406327:	48 89 d0             	mov    %rdx,%rax
  40632a:	48 c1 f8 05          	sar    $0x5,%rax
  40632e:	48 89 c2             	mov    %rax,%rdx
  406331:	48 8b 45 f8          	mov    -0x8(%rbp),%rax
  406335:	48 8b 08             	mov    (%rax),%rcx
  406338:	48 8b 45 f8          	mov    -0x8(%rbp),%rax
  40633c:	48 89 ce             	mov    %rcx,%rsi
  40633f:	48 89 c7             	mov    %rax,%rdi
  406342:	e8 cb 0a 00 00       	callq  406e12 <_ZNSt12_Vector_baseIN9ObjLoader7PolygonESaIS1_EE13_M_deallocateEPS1_m>
  406347:	48 8b 45 f8          	mov    -0x8(%rbp),%rax
  40634b:	48 89 c7             	mov    %rax,%rdi
  40634e:	e8 7b ff ff ff       	callq  4062ce <_ZNSt12_Vector_baseIN9ObjLoader7PolygonESaIS1_EE12_Vector_implD1Ev>
  406353:	90                   	nop
  406354:	c9                   	leaveq 
  406355:	c3                   	retq   

0000000000406356 <_ZNSt12_Vector_baseIN9ObjLoader7PolygonESaIS1_EE19_M_get_Tp_allocatorEv>:
  406356:	55                   	push   %rbp
  406357:	48 89 e5             	mov    %rsp,%rbp
  40635a:	48 89 7d f8          	mov    %rdi,-0x8(%rbp)
  40635e:	48 8b 45 f8          	mov    -0x8(%rbp),%rax
  406362:	5d                   	pop    %rbp
  406363:	c3                   	retq   

0000000000406364 <_ZSt8_DestroyIPN9ObjLoader7PolygonES1_EvT_S3_RSaIT0_E>:
  406364:	55                   	push   %rbp
  406365:	48 89 e5             	mov    %rsp,%rbp
  406368:	48 83 ec 20          	sub    $0x20,%rsp
  40636c:	48 89 7d f8          	mov    %rdi,-0x8(%rbp)
  406370:	48 89 75 f0          	mov    %rsi,-0x10(%rbp)
  406374:	48 89 55 e8          	mov    %rdx,-0x18(%rbp)
  406378:	48 8b 55 f0          	mov    -0x10(%rbp),%rdx
  40637c:	48 8b 45 f8          	mov    -0x8(%rbp),%rax
  406380:	48 89 d6             	mov    %rdx,%rsi
  406383:	48 89 c7             	mov    %rax,%rdi
  406386:	e8 bc 0a 00 00       	callq  406e47 <_ZSt8_DestroyIPN9ObjLoader7PolygonEEvT_S3_>
  40638b:	90                   	nop
  40638c:	c9                   	leaveq 
  40638d:	c3                   	retq   

000000000040638e <_ZSt7forwardIRKN9ObjLoader7Vector3EEOT_RNSt16remove_referenceIS4_E4typeE>:
  40638e:	55                   	push   %rbp
  40638f:	48 89 e5             	mov    %rsp,%rbp
  406392:	48 89 7d f8          	mov    %rdi,-0x8(%rbp)
  406396:	48 8b 45 f8          	mov    -0x8(%rbp),%rax
  40639a:	5d                   	pop    %rbp
  40639b:	c3                   	retq   

000000000040639c <_ZNSt16allocator_traitsISaIN9ObjLoader7Vector3EEE9constructIS1_JRKS1_EEEvRS2_PT_DpOT0_>:
  40639c:	55                   	push   %rbp
  40639d:	48 89 e5             	mov    %rsp,%rbp
  4063a0:	48 83 ec 20          	sub    $0x20,%rsp
  4063a4:	48 89 7d f8          	mov    %rdi,-0x8(%rbp)
  4063a8:	48 89 75 f0          	mov    %rsi,-0x10(%rbp)
  4063ac:	48 89 55 e8          	mov    %rdx,-0x18(%rbp)
  4063b0:	48 8b 45 e8          	mov    -0x18(%rbp),%rax
  4063b4:	48 89 c7             	mov    %rax,%rdi
  4063b7:	e8 d2 ff ff ff       	callq  40638e <_ZSt7forwardIRKN9ObjLoader7Vector3EEOT_RNSt16remove_referenceIS4_E4typeE>
  4063bc:	48 89 c2             	mov    %rax,%rdx
  4063bf:	48 8b 4d f0          	mov    -0x10(%rbp),%rcx
  4063c3:	48 8b 45 f8          	mov    -0x8(%rbp),%rax
  4063c7:	48 89 ce             	mov    %rcx,%rsi
  4063ca:	48 89 c7             	mov    %rax,%rdi
  4063cd:	e8 9c 0a 00 00       	callq  406e6e <_ZN9__gnu_cxx13new_allocatorIN9ObjLoader7Vector3EE9constructIS2_JRKS2_EEEvPT_DpOT0_>
  4063d2:	90                   	nop
  4063d3:	c9                   	leaveq 
  4063d4:	c3                   	retq   
  4063d5:	90                   	nop

00000000004063d6 <_ZNSt6vectorIN9ObjLoader7Vector3ESaIS1_EE3endEv>:
  4063d6:	55                   	push   %rbp
  4063d7:	48 89 e5             	mov    %rsp,%rbp
  4063da:	48 83 ec 20          	sub    $0x20,%rsp
  4063de:	48 89 7d e8          	mov    %rdi,-0x18(%rbp)
  4063e2:	48 8b 45 e8          	mov    -0x18(%rbp),%rax
  4063e6:	48 8d 50 08          	lea    0x8(%rax),%rdx
  4063ea:	48 8d 45 f8          	lea    -0x8(%rbp),%rax
  4063ee:	48 89 d6             	mov    %rdx,%rsi
  4063f1:	48 89 c7             	mov    %rax,%rdi
  4063f4:	e8 c3 0a 00 00       	callq  406ebc <_ZN9__gnu_cxx17__normal_iteratorIPN9ObjLoader7Vector3ESt6vectorIS2_SaIS2_EEEC1ERKS3_>
  4063f9:	48 8b 45 f8          	mov    -0x8(%rbp),%rax
  4063fd:	c9                   	leaveq 
  4063fe:	c3                   	retq   
  4063ff:	90                   	nop

0000000000406400 <_ZNSt6vectorIN9ObjLoader7Vector3ESaIS1_EE17_M_realloc_insertIJRKS1_EEEvN9__gnu_cxx17__normal_iteratorIPS1_S3_EEDpOT_>:
  406400:	55                   	push   %rbp
  406401:	48 89 e5             	mov    %rsp,%rbp
  406404:	41 54                	push   %r12
  406406:	53                   	push   %rbx
  406407:	48 83 ec 50          	sub    $0x50,%rsp
  40640b:	48 89 7d b8          	mov    %rdi,-0x48(%rbp)
  40640f:	48 89 75 b0          	mov    %rsi,-0x50(%rbp)
  406413:	48 89 55 a8          	mov    %rdx,-0x58(%rbp)
  406417:	48 8b 45 b8          	mov    -0x48(%rbp),%rax
  40641b:	48 8d 15 02 17 03 00 	lea    0x31702(%rip),%rdx        # 437b24 <_ZStL19piecewise_construct+0xe4>
  406422:	be 01 00 00 00       	mov    $0x1,%esi
  406427:	48 89 c7             	mov    %rax,%rdi
  40642a:	e8 ab 0a 00 00       	callq  406eda <_ZNKSt6vectorIN9ObjLoader7Vector3ESaIS1_EE12_M_check_lenEmPKc>
  40642f:	48 89 45 e0          	mov    %rax,-0x20(%rbp)
  406433:	48 8b 45 b8          	mov    -0x48(%rbp),%rax
  406437:	48 89 c7             	mov    %rax,%rdi
  40643a:	e8 65 0b 00 00       	callq  406fa4 <_ZNSt6vectorIN9ObjLoader7Vector3ESaIS1_EE5beginEv>
  40643f:	48 89 45 c8          	mov    %rax,-0x38(%rbp)
  406443:	48 8d 55 c8          	lea    -0x38(%rbp),%rdx
  406447:	48 8d 45 b0          	lea    -0x50(%rbp),%rax
  40644b:	48 89 d6             	mov    %rdx,%rsi
  40644e:	48 89 c7             	mov    %rax,%rdi
  406451:	e8 73 0b 00 00       	callq  406fc9 <_ZN9__gnu_cxxmiIPN9ObjLoader7Vector3ESt6vectorIS2_SaIS2_EEEENS_17__normal_iteratorIT_T0_E15difference_typeERKSA_SD_>
  406456:	48 89 45 d8          	mov    %rax,-0x28(%rbp)
  40645a:	48 8b 45 b8          	mov    -0x48(%rbp),%rax
  40645e:	48 8b 55 e0          	mov    -0x20(%rbp),%rdx
  406462:	48 89 d6             	mov    %rdx,%rsi
  406465:	48 89 c7             	mov    %rax,%rdi
  406468:	e8 b1 0b 00 00       	callq  40701e <_ZNSt12_Vector_baseIN9ObjLoader7Vector3ESaIS1_EE11_M_allocateEm>
  40646d:	48 89 45 d0          	mov    %rax,-0x30(%rbp)
  406471:	48 8b 45 d0          	mov    -0x30(%rbp),%rax
  406475:	48 89 45 e8          	mov    %rax,-0x18(%rbp)
  406479:	48 8b 45 a8          	mov    -0x58(%rbp),%rax
  40647d:	48 89 c7             	mov    %rax,%rdi
  406480:	e8 09 ff ff ff       	callq  40638e <_ZSt7forwardIRKN9ObjLoader7Vector3EEOT_RNSt16remove_referenceIS4_E4typeE>
  406485:	48 89 c6             	mov    %rax,%rsi
  406488:	48 8b 55 d8          	mov    -0x28(%rbp),%rdx
  40648c:	48 89 d0             	mov    %rdx,%rax
  40648f:	48 01 c0             	add    %rax,%rax
  406492:	48 01 d0             	add    %rdx,%rax
  406495:	48 c1 e0 02          	shl    $0x2,%rax
  406499:	48 89 c2             	mov    %rax,%rdx
  40649c:	48 8b 45 d0          	mov    -0x30(%rbp),%rax
  4064a0:	48 8d 0c 02          	lea    (%rdx,%rax,1),%rcx
  4064a4:	48 8b 45 b8          	mov    -0x48(%rbp),%rax
  4064a8:	48 89 f2             	mov    %rsi,%rdx
  4064ab:	48 89 ce             	mov    %rcx,%rsi
  4064ae:	48 89 c7             	mov    %rax,%rdi
  4064b1:	e8 e6 fe ff ff       	callq  40639c <_ZNSt16allocator_traitsISaIN9ObjLoader7Vector3EEE9constructIS1_JRKS1_EEEvRS2_PT_DpOT0_>
  4064b6:	48 c7 45 e8 00 00 00 	movq   $0x0,-0x18(%rbp)
  4064bd:	00 
  4064be:	48 8b 45 b8          	mov    -0x48(%rbp),%rax
  4064c2:	48 89 c7             	mov    %rax,%rdi
  4064c5:	e8 cc fd ff ff       	callq  406296 <_ZNSt12_Vector_baseIN9ObjLoader7Vector3ESaIS1_EE19_M_get_Tp_allocatorEv>
  4064ca:	48 89 c3             	mov    %rax,%rbx
  4064cd:	48 8d 45 b0          	lea    -0x50(%rbp),%rax
  4064d1:	48 89 c7             	mov    %rax,%rdi
  4064d4:	e8 79 0b 00 00       	callq  407052 <_ZNK9__gnu_cxx17__normal_iteratorIPN9ObjLoader7Vector3ESt6vectorIS2_SaIS2_EEE4baseEv>
  4064d9:	48 8b 30             	mov    (%rax),%rsi
  4064dc:	48 8b 45 b8          	mov    -0x48(%rbp),%rax
  4064e0:	48 8b 00             	mov    (%rax),%rax
  4064e3:	48 8b 55 d0          	mov    -0x30(%rbp),%rdx
  4064e7:	48 89 d9             	mov    %rbx,%rcx
  4064ea:	48 89 c7             	mov    %rax,%rdi
  4064ed:	e8 6e 0b 00 00       	callq  407060 <_ZSt34__uninitialized_move_if_noexcept_aIPN9ObjLoader7Vector3ES2_SaIS1_EET0_T_S5_S4_RT1_>
  4064f2:	48 89 45 e8          	mov    %rax,-0x18(%rbp)
  4064f6:	48 83 45 e8 0c       	addq   $0xc,-0x18(%rbp)
  4064fb:	48 8b 45 b8          	mov    -0x48(%rbp),%rax
  4064ff:	48 89 c7             	mov    %rax,%rdi
  406502:	e8 8f fd ff ff       	callq  406296 <_ZNSt12_Vector_baseIN9ObjLoader7Vector3ESaIS1_EE19_M_get_Tp_allocatorEv>
  406507:	49 89 c4             	mov    %rax,%r12
  40650a:	48 8b 45 b8          	mov    -0x48(%rbp),%rax
  40650e:	48 8b 58 08          	mov    0x8(%rax),%rbx
  406512:	48 8d 45 b0          	lea    -0x50(%rbp),%rax
  406516:	48 89 c7             	mov    %rax,%rdi
  406519:	e8 34 0b 00 00       	callq  407052 <_ZNK9__gnu_cxx17__normal_iteratorIPN9ObjLoader7Vector3ESt6vectorIS2_SaIS2_EEE4baseEv>
  40651e:	48 8b 00             	mov    (%rax),%rax
  406521:	48 8b 55 e8          	mov    -0x18(%rbp),%rdx
  406525:	4c 89 e1             	mov    %r12,%rcx
  406528:	48 89 de             	mov    %rbx,%rsi
  40652b:	48 89 c7             	mov    %rax,%rdi
  40652e:	e8 2d 0b 00 00       	callq  407060 <_ZSt34__uninitialized_move_if_noexcept_aIPN9ObjLoader7Vector3ES2_SaIS1_EET0_T_S5_S4_RT1_>
  406533:	48 89 45 e8          	mov    %rax,-0x18(%rbp)
  406537:	48 8b 45 b8          	mov    -0x48(%rbp),%rax
  40653b:	48 89 c7             	mov    %rax,%rdi
  40653e:	e8 53 fd ff ff       	callq  406296 <_ZNSt12_Vector_baseIN9ObjLoader7Vector3ESaIS1_EE19_M_get_Tp_allocatorEv>
  406543:	48 89 c2             	mov    %rax,%rdx
  406546:	48 8b 45 b8          	mov    -0x48(%rbp),%rax
  40654a:	48 8b 48 08          	mov    0x8(%rax),%rcx
  40654e:	48 8b 45 b8          	mov    -0x48(%rbp),%rax
  406552:	48 8b 00             	mov    (%rax),%rax
  406555:	48 89 ce             	mov    %rcx,%rsi
  406558:	48 89 c7             	mov    %rax,%rdi
  40655b:	e8 44 fd ff ff       	callq  4062a4 <_ZSt8_DestroyIPN9ObjLoader7Vector3ES1_EvT_S3_RSaIT0_E>
  406560:	48 8b 45 b8          	mov    -0x48(%rbp),%rax
  406564:	48 8b 55 b8          	mov    -0x48(%rbp),%rdx
  406568:	48 8b 52 10          	mov    0x10(%rdx),%rdx
  40656c:	48 89 d1             	mov    %rdx,%rcx
  40656f:	48 8b 55 b8          	mov    -0x48(%rbp),%rdx
  406573:	48 8b 12             	mov    (%rdx),%rdx
  406576:	48 29 d1             	sub    %rdx,%rcx
  406579:	48 89 ca             	mov    %rcx,%rdx
  40657c:	48 89 d1             	mov    %rdx,%rcx
  40657f:	48 c1 f9 02          	sar    $0x2,%rcx
  406583:	48 ba ab aa aa aa aa 	movabs $0xaaaaaaaaaaaaaaab,%rdx
  40658a:	aa aa aa 
  40658d:	48 0f af d1          	imul   %rcx,%rdx
  406591:	48 89 d6             	mov    %rdx,%rsi
  406594:	48 8b 55 b8          	mov    -0x48(%rbp),%rdx
  406598:	48 8b 0a             	mov    (%rdx),%rcx
  40659b:	48 89 f2             	mov    %rsi,%rdx
  40659e:	48 89 ce             	mov    %rcx,%rsi
  4065a1:	48 89 c7             	mov    %rax,%rdi
  4065a4:	e8 b3 07 00 00       	callq  406d5c <_ZNSt12_Vector_baseIN9ObjLoader7Vector3ESaIS1_EE13_M_deallocateEPS1_m>
  4065a9:	48 8b 45 b8          	mov    -0x48(%rbp),%rax
  4065ad:	48 8b 55 d0          	mov    -0x30(%rbp),%rdx
  4065b1:	48 89 10             	mov    %rdx,(%rax)
  4065b4:	48 8b 45 b8          	mov    -0x48(%rbp),%rax
  4065b8:	48 8b 55 e8          	mov    -0x18(%rbp),%rdx
  4065bc:	48 89 50 08          	mov    %rdx,0x8(%rax)
  4065c0:	48 8b 55 e0          	mov    -0x20(%rbp),%rdx
  4065c4:	48 89 d0             	mov    %rdx,%rax
  4065c7:	48 01 c0             	add    %rax,%rax
  4065ca:	48 01 d0             	add    %rdx,%rax
  4065cd:	48 c1 e0 02          	shl    $0x2,%rax
  4065d1:	48 89 c2             	mov    %rax,%rdx
  4065d4:	48 8b 45 d0          	mov    -0x30(%rbp),%rax
  4065d8:	48 01 c2             	add    %rax,%rdx
  4065db:	48 8b 45 b8          	mov    -0x48(%rbp),%rax
  4065df:	48 89 50 10          	mov    %rdx,0x10(%rax)
  4065e3:	e9 8c 00 00 00       	jmpq   406674 <_ZNSt6vectorIN9ObjLoader7Vector3ESaIS1_EE17_M_realloc_insertIJRKS1_EEEvN9__gnu_cxx17__normal_iteratorIPS1_S3_EEDpOT_+0x274>
  4065e8:	48 89 c7             	mov    %rax,%rdi
  4065eb:	e8 b0 d0 ff ff       	callq  4036a0 <__cxa_begin_catch@plt>
  4065f0:	48 83 7d e8 00       	cmpq   $0x0,-0x18(%rbp)
  4065f5:	75 2c                	jne    406623 <_ZNSt6vectorIN9ObjLoader7Vector3ESaIS1_EE17_M_realloc_insertIJRKS1_EEEvN9__gnu_cxx17__normal_iteratorIPS1_S3_EEDpOT_+0x223>
  4065f7:	48 8b 55 d8          	mov    -0x28(%rbp),%rdx
  4065fb:	48 89 d0             	mov    %rdx,%rax
  4065fe:	48 01 c0             	add    %rax,%rax
  406601:	48 01 d0             	add    %rdx,%rax
  406604:	48 c1 e0 02          	shl    $0x2,%rax
  406608:	48 89 c2             	mov    %rax,%rdx
  40660b:	48 8b 45 d0          	mov    -0x30(%rbp),%rax
  40660f:	48 01 c2             	add    %rax,%rdx
  406612:	48 8b 45 b8          	mov    -0x48(%rbp),%rax
  406616:	48 89 d6             	mov    %rdx,%rsi
  406619:	48 89 c7             	mov    %rax,%rdi
  40661c:	e8 93 0a 00 00       	callq  4070b4 <_ZNSt16allocator_traitsISaIN9ObjLoader7Vector3EEE7destroyIS1_EEvRS2_PT_>
  406621:	eb 22                	jmp    406645 <_ZNSt6vectorIN9ObjLoader7Vector3ESaIS1_EE17_M_realloc_insertIJRKS1_EEEvN9__gnu_cxx17__normal_iteratorIPS1_S3_EEDpOT_+0x245>
  406623:	48 8b 45 b8          	mov    -0x48(%rbp),%rax
  406627:	48 89 c7             	mov    %rax,%rdi
  40662a:	e8 67 fc ff ff       	callq  406296 <_ZNSt12_Vector_baseIN9ObjLoader7Vector3ESaIS1_EE19_M_get_Tp_allocatorEv>
  40662f:	48 89 c2             	mov    %rax,%rdx
  406632:	48 8b 4d e8          	mov    -0x18(%rbp),%rcx
  406636:	48 8b 45 d0          	mov    -0x30(%rbp),%rax
  40663a:	48 89 ce             	mov    %rcx,%rsi
  40663d:	48 89 c7             	mov    %rax,%rdi
  406640:	e8 5f fc ff ff       	callq  4062a4 <_ZSt8_DestroyIPN9ObjLoader7Vector3ES1_EvT_S3_RSaIT0_E>
  406645:	48 8b 45 b8          	mov    -0x48(%rbp),%rax
  406649:	48 8b 55 e0          	mov    -0x20(%rbp),%rdx
  40664d:	48 8b 4d d0          	mov    -0x30(%rbp),%rcx
  406651:	48 89 ce             	mov    %rcx,%rsi
  406654:	48 89 c7             	mov    %rax,%rdi
  406657:	e8 00 07 00 00       	callq  406d5c <_ZNSt12_Vector_baseIN9ObjLoader7Vector3ESaIS1_EE13_M_deallocateEPS1_m>
  40665c:	e8 0f d6 ff ff       	callq  403c70 <__cxa_rethrow@plt>
  406661:	48 89 c3             	mov    %rax,%rbx
  406664:	e8 17 d7 ff ff       	callq  403d80 <__cxa_end_catch@plt>
  406669:	48 89 d8             	mov    %rbx,%rax
  40666c:	48 89 c7             	mov    %rax,%rdi
  40666f:	e8 8c d7 ff ff       	callq  403e00 <_Unwind_Resume@plt>
  406674:	48 83 c4 50          	add    $0x50,%rsp
  406678:	5b                   	pop    %rbx
  406679:	41 5c                	pop    %r12
  40667b:	5d                   	pop    %rbp
  40667c:	c3                   	retq   
  40667d:	90                   	nop

000000000040667e <_ZNSt12_Vector_baseIN9ObjLoader13VertexIndicesESaIS1_EE12_Vector_implD1Ev>:
  40667e:	55                   	push   %rbp
  40667f:	48 89 e5             	mov    %rsp,%rbp
  406682:	48 83 ec 10          	sub    $0x10,%rsp
  406686:	48 89 7d f8          	mov    %rdi,-0x8(%rbp)
  40668a:	48 8b 45 f8          	mov    -0x8(%rbp),%rax
  40668e:	48 89 c7             	mov    %rax,%rdi
  406691:	e8 82 0a 00 00       	callq  407118 <_ZNSaIN9ObjLoader13VertexIndicesEED1Ev>
  406696:	90                   	nop
  406697:	c9                   	leaveq 
  406698:	c3                   	retq   
  406699:	90                   	nop

000000000040669a <_ZNSt12_Vector_baseIN9ObjLoader13VertexIndicesESaIS1_EEC1Ev>:
  40669a:	55                   	push   %rbp
  40669b:	48 89 e5             	mov    %rsp,%rbp
  40669e:	48 83 ec 10          	sub    $0x10,%rsp
  4066a2:	48 89 7d f8          	mov    %rdi,-0x8(%rbp)
  4066a6:	48 8b 45 f8          	mov    -0x8(%rbp),%rax
  4066aa:	48 89 c7             	mov    %rax,%rdi
  4066ad:	e8 28 0a 00 00       	callq  4070da <_ZNSt12_Vector_baseIN9ObjLoader13VertexIndicesESaIS1_EE12_Vector_implC1Ev>
  4066b2:	90                   	nop
  4066b3:	c9                   	leaveq 
  4066b4:	c3                   	retq   
  4066b5:	90                   	nop

00000000004066b6 <_ZNSt12_Vector_baseIN9ObjLoader13VertexIndicesESaIS1_EED1Ev>:
  4066b6:	55                   	push   %rbp
  4066b7:	48 89 e5             	mov    %rsp,%rbp
  4066ba:	48 83 ec 10          	sub    $0x10,%rsp
  4066be:	48 89 7d f8          	mov    %rdi,-0x8(%rbp)
  4066c2:	48 8b 45 f8          	mov    -0x8(%rbp),%rax
  4066c6:	48 8b 40 10          	mov    0x10(%rax),%rax
  4066ca:	48 89 c2             	mov    %rax,%rdx
  4066cd:	48 8b 45 f8          	mov    -0x8(%rbp),%rax
  4066d1:	48 8b 00             	mov    (%rax),%rax
  4066d4:	48 29 c2             	sub    %rax,%rdx
  4066d7:	48 89 d0             	mov    %rdx,%rax
  4066da:	48 c1 f8 02          	sar    $0x2,%rax
  4066de:	48 89 c2             	mov    %rax,%rdx
  4066e1:	48 b8 ab aa aa aa aa 	movabs $0xaaaaaaaaaaaaaaab,%rax
  4066e8:	aa aa aa 
  4066eb:	48 0f af c2          	imul   %rdx,%rax
  4066ef:	48 89 c2             	mov    %rax,%rdx
  4066f2:	48 8b 45 f8          	mov    -0x8(%rbp),%rax
  4066f6:	48 8b 08             	mov    (%rax),%rcx
  4066f9:	48 8b 45 f8          	mov    -0x8(%rbp),%rax
  4066fd:	48 89 ce             	mov    %rcx,%rsi
  406700:	48 89 c7             	mov    %rax,%rdi
  406703:	e8 2c 0a 00 00       	callq  407134 <_ZNSt12_Vector_baseIN9ObjLoader13VertexIndicesESaIS1_EE13_M_deallocateEPS1_m>
  406708:	48 8b 45 f8          	mov    -0x8(%rbp),%rax
  40670c:	48 89 c7             	mov    %rax,%rdi
  40670f:	e8 6a ff ff ff       	callq  40667e <_ZNSt12_Vector_baseIN9ObjLoader13VertexIndicesESaIS1_EE12_Vector_implD1Ev>
  406714:	90                   	nop
  406715:	c9                   	leaveq 
  406716:	c3                   	retq   
  406717:	90                   	nop

0000000000406718 <_ZNSt12_Vector_baseIN9ObjLoader13VertexIndicesESaIS1_EE19_M_get_Tp_allocatorEv>:
  406718:	55                   	push   %rbp
  406719:	48 89 e5             	mov    %rsp,%rbp
  40671c:	48 89 7d f8          	mov    %rdi,-0x8(%rbp)
  406720:	48 8b 45 f8          	mov    -0x8(%rbp),%rax
  406724:	5d                   	pop    %rbp
  406725:	c3                   	retq   

0000000000406726 <_ZSt8_DestroyIPN9ObjLoader13VertexIndicesES1_EvT_S3_RSaIT0_E>:
  406726:	55                   	push   %rbp
  406727:	48 89 e5             	mov    %rsp,%rbp
  40672a:	48 83 ec 20          	sub    $0x20,%rsp
  40672e:	48 89 7d f8          	mov    %rdi,-0x8(%rbp)
  406732:	48 89 75 f0          	mov    %rsi,-0x10(%rbp)
  406736:	48 89 55 e8          	mov    %rdx,-0x18(%rbp)
  40673a:	48 8b 55 f0          	mov    -0x10(%rbp),%rdx
  40673e:	48 8b 45 f8          	mov    -0x8(%rbp),%rax
  406742:	48 89 d6             	mov    %rdx,%rsi
  406745:	48 89 c7             	mov    %rax,%rdi
  406748:	e8 1c 0a 00 00       	callq  407169 <_ZSt8_DestroyIPN9ObjLoader13VertexIndicesEEvT_S3_>
  40674d:	90                   	nop
  40674e:	c9                   	leaveq 
  40674f:	c3                   	retq   

0000000000406750 <_ZSt7forwardIRKN9ObjLoader13VertexIndicesEEOT_RNSt16remove_referenceIS4_E4typeE>:
  406750:	55                   	push   %rbp
  406751:	48 89 e5             	mov    %rsp,%rbp
  406754:	48 89 7d f8          	mov    %rdi,-0x8(%rbp)
  406758:	48 8b 45 f8          	mov    -0x8(%rbp),%rax
  40675c:	5d                   	pop    %rbp
  40675d:	c3                   	retq   

000000000040675e <_ZNSt16allocator_traitsISaIN9ObjLoader13VertexIndicesEEE9constructIS1_JRKS1_EEEvRS2_PT_DpOT0_>:
  40675e:	55                   	push   %rbp
  40675f:	48 89 e5             	mov    %rsp,%rbp
  406762:	48 83 ec 20          	sub    $0x20,%rsp
  406766:	48 89 7d f8          	mov    %rdi,-0x8(%rbp)
  40676a:	48 89 75 f0          	mov    %rsi,-0x10(%rbp)
  40676e:	48 89 55 e8          	mov    %rdx,-0x18(%rbp)
  406772:	48 8b 45 e8          	mov    -0x18(%rbp),%rax
  406776:	48 89 c7             	mov    %rax,%rdi
  406779:	e8 d2 ff ff ff       	callq  406750 <_ZSt7forwardIRKN9ObjLoader13VertexIndicesEEOT_RNSt16remove_referenceIS4_E4typeE>
  40677e:	48 89 c2             	mov    %rax,%rdx
  406781:	48 8b 4d f0          	mov    -0x10(%rbp),%rcx
  406785:	48 8b 45 f8          	mov    -0x8(%rbp),%rax
  406789:	48 89 ce             	mov    %rcx,%rsi
  40678c:	48 89 c7             	mov    %rax,%rdi
  40678f:	e8 fc 09 00 00       	callq  407190 <_ZN9__gnu_cxx13new_allocatorIN9ObjLoader13VertexIndicesEE9constructIS2_JRKS2_EEEvPT_DpOT0_>
  406794:	90                   	nop
  406795:	c9                   	leaveq 
  406796:	c3                   	retq   
  406797:	90                   	nop

0000000000406798 <_ZNSt6vectorIN9ObjLoader13VertexIndicesESaIS1_EE3endEv>:
  406798:	55                   	push   %rbp
  406799:	48 89 e5             	mov    %rsp,%rbp
  40679c:	48 83 ec 20          	sub    $0x20,%rsp
  4067a0:	48 89 7d e8          	mov    %rdi,-0x18(%rbp)
  4067a4:	48 8b 45 e8          	mov    -0x18(%rbp),%rax
  4067a8:	48 8d 50 08          	lea    0x8(%rax),%rdx
  4067ac:	48 8d 45 f8          	lea    -0x8(%rbp),%rax
  4067b0:	48 89 d6             	mov    %rdx,%rsi
  4067b3:	48 89 c7             	mov    %rax,%rdi
  4067b6:	e8 23 0a 00 00       	callq  4071de <_ZN9__gnu_cxx17__normal_iteratorIPN9ObjLoader13VertexIndicesESt6vectorIS2_SaIS2_EEEC1ERKS3_>
  4067bb:	48 8b 45 f8          	mov    -0x8(%rbp),%rax
  4067bf:	c9                   	leaveq 
  4067c0:	c3                   	retq   
  4067c1:	90                   	nop

00000000004067c2 <_ZNSt6vectorIN9ObjLoader13VertexIndicesESaIS1_EE17_M_realloc_insertIJRKS1_EEEvN9__gnu_cxx17__normal_iteratorIPS1_S3_EEDpOT_>:
  4067c2:	55                   	push   %rbp
  4067c3:	48 89 e5             	mov    %rsp,%rbp
  4067c6:	41 54                	push   %r12
  4067c8:	53                   	push   %rbx
  4067c9:	48 83 ec 50          	sub    $0x50,%rsp
  4067cd:	48 89 7d b8          	mov    %rdi,-0x48(%rbp)
  4067d1:	48 89 75 b0          	mov    %rsi,-0x50(%rbp)
  4067d5:	48 89 55 a8          	mov    %rdx,-0x58(%rbp)
  4067d9:	48 8b 45 b8          	mov    -0x48(%rbp),%rax
  4067dd:	48 8d 15 40 13 03 00 	lea    0x31340(%rip),%rdx        # 437b24 <_ZStL19piecewise_construct+0xe4>
  4067e4:	be 01 00 00 00       	mov    $0x1,%esi
  4067e9:	48 89 c7             	mov    %rax,%rdi
  4067ec:	e8 0b 0a 00 00       	callq  4071fc <_ZNKSt6vectorIN9ObjLoader13VertexIndicesESaIS1_EE12_M_check_lenEmPKc>
  4067f1:	48 89 45 e0          	mov    %rax,-0x20(%rbp)
  4067f5:	48 8b 45 b8          	mov    -0x48(%rbp),%rax
  4067f9:	48 89 c7             	mov    %rax,%rdi
  4067fc:	e8 c5 0a 00 00       	callq  4072c6 <_ZNSt6vectorIN9ObjLoader13VertexIndicesESaIS1_EE5beginEv>
  406801:	48 89 45 c8          	mov    %rax,-0x38(%rbp)
  406805:	48 8d 55 c8          	lea    -0x38(%rbp),%rdx
  406809:	48 8d 45 b0          	lea    -0x50(%rbp),%rax
  40680d:	48 89 d6             	mov    %rdx,%rsi
  406810:	48 89 c7             	mov    %rax,%rdi
  406813:	e8 d3 0a 00 00       	callq  4072eb <_ZN9__gnu_cxxmiIPN9ObjLoader13VertexIndicesESt6vectorIS2_SaIS2_EEEENS_17__normal_iteratorIT_T0_E15difference_typeERKSA_SD_>
  406818:	48 89 45 d8          	mov    %rax,-0x28(%rbp)
  40681c:	48 8b 45 b8          	mov    -0x48(%rbp),%rax
  406820:	48 8b 55 e0          	mov    -0x20(%rbp),%rdx
  406824:	48 89 d6             	mov    %rdx,%rsi
  406827:	48 89 c7             	mov    %rax,%rdi
  40682a:	e8 11 0b 00 00       	callq  407340 <_ZNSt12_Vector_baseIN9ObjLoader13VertexIndicesESaIS1_EE11_M_allocateEm>
  40682f:	48 89 45 d0          	mov    %rax,-0x30(%rbp)
  406833:	48 8b 45 d0          	mov    -0x30(%rbp),%rax
  406837:	48 89 45 e8          	mov    %rax,-0x18(%rbp)
  40683b:	48 8b 45 a8          	mov    -0x58(%rbp),%rax
  40683f:	48 89 c7             	mov    %rax,%rdi
  406842:	e8 09 ff ff ff       	callq  406750 <_ZSt7forwardIRKN9ObjLoader13VertexIndicesEEOT_RNSt16remove_referenceIS4_E4typeE>
  406847:	48 89 c6             	mov    %rax,%rsi
  40684a:	48 8b 55 d8          	mov    -0x28(%rbp),%rdx
  40684e:	48 89 d0             	mov    %rdx,%rax
  406851:	48 01 c0             	add    %rax,%rax
  406854:	48 01 d0             	add    %rdx,%rax
  406857:	48 c1 e0 02          	shl    $0x2,%rax
  40685b:	48 89 c2             	mov    %rax,%rdx
  40685e:	48 8b 45 d0          	mov    -0x30(%rbp),%rax
  406862:	48 8d 0c 02          	lea    (%rdx,%rax,1),%rcx
  406866:	48 8b 45 b8          	mov    -0x48(%rbp),%rax
  40686a:	48 89 f2             	mov    %rsi,%rdx
  40686d:	48 89 ce             	mov    %rcx,%rsi
  406870:	48 89 c7             	mov    %rax,%rdi
  406873:	e8 e6 fe ff ff       	callq  40675e <_ZNSt16allocator_traitsISaIN9ObjLoader13VertexIndicesEEE9constructIS1_JRKS1_EEEvRS2_PT_DpOT0_>
  406878:	48 c7 45 e8 00 00 00 	movq   $0x0,-0x18(%rbp)
  40687f:	00 
  406880:	48 8b 45 b8          	mov    -0x48(%rbp),%rax
  406884:	48 89 c7             	mov    %rax,%rdi
  406887:	e8 8c fe ff ff       	callq  406718 <_ZNSt12_Vector_baseIN9ObjLoader13VertexIndicesESaIS1_EE19_M_get_Tp_allocatorEv>
  40688c:	48 89 c3             	mov    %rax,%rbx
  40688f:	48 8d 45 b0          	lea    -0x50(%rbp),%rax
  406893:	48 89 c7             	mov    %rax,%rdi
  406896:	e8 d9 0a 00 00       	callq  407374 <_ZNK9__gnu_cxx17__normal_iteratorIPN9ObjLoader13VertexIndicesESt6vectorIS2_SaIS2_EEE4baseEv>
  40689b:	48 8b 30             	mov    (%rax),%rsi
  40689e:	48 8b 45 b8          	mov    -0x48(%rbp),%rax
  4068a2:	48 8b 00             	mov    (%rax),%rax
  4068a5:	48 8b 55 d0          	mov    -0x30(%rbp),%rdx
  4068a9:	48 89 d9             	mov    %rbx,%rcx
  4068ac:	48 89 c7             	mov    %rax,%rdi
  4068af:	e8 ce 0a 00 00       	callq  407382 <_ZSt34__uninitialized_move_if_noexcept_aIPN9ObjLoader13VertexIndicesES2_SaIS1_EET0_T_S5_S4_RT1_>
  4068b4:	48 89 45 e8          	mov    %rax,-0x18(%rbp)
  4068b8:	48 83 45 e8 0c       	addq   $0xc,-0x18(%rbp)
  4068bd:	48 8b 45 b8          	mov    -0x48(%rbp),%rax
  4068c1:	48 89 c7             	mov    %rax,%rdi
  4068c4:	e8 4f fe ff ff       	callq  406718 <_ZNSt12_Vector_baseIN9ObjLoader13VertexIndicesESaIS1_EE19_M_get_Tp_allocatorEv>
  4068c9:	49 89 c4             	mov    %rax,%r12
  4068cc:	48 8b 45 b8          	mov    -0x48(%rbp),%rax
  4068d0:	48 8b 58 08          	mov    0x8(%rax),%rbx
  4068d4:	48 8d 45 b0          	lea    -0x50(%rbp),%rax
  4068d8:	48 89 c7             	mov    %rax,%rdi
  4068db:	e8 94 0a 00 00       	callq  407374 <_ZNK9__gnu_cxx17__normal_iteratorIPN9ObjLoader13VertexIndicesESt6vectorIS2_SaIS2_EEE4baseEv>
  4068e0:	48 8b 00             	mov    (%rax),%rax
  4068e3:	48 8b 55 e8          	mov    -0x18(%rbp),%rdx
  4068e7:	4c 89 e1             	mov    %r12,%rcx
  4068ea:	48 89 de             	mov    %rbx,%rsi
  4068ed:	48 89 c7             	mov    %rax,%rdi
  4068f0:	e8 8d 0a 00 00       	callq  407382 <_ZSt34__uninitialized_move_if_noexcept_aIPN9ObjLoader13VertexIndicesES2_SaIS1_EET0_T_S5_S4_RT1_>
  4068f5:	48 89 45 e8          	mov    %rax,-0x18(%rbp)
  4068f9:	48 8b 45 b8          	mov    -0x48(%rbp),%rax
  4068fd:	48 89 c7             	mov    %rax,%rdi
  406900:	e8 13 fe ff ff       	callq  406718 <_ZNSt12_Vector_baseIN9ObjLoader13VertexIndicesESaIS1_EE19_M_get_Tp_allocatorEv>
  406905:	48 89 c2             	mov    %rax,%rdx
  406908:	48 8b 45 b8          	mov    -0x48(%rbp),%rax
  40690c:	48 8b 48 08          	mov    0x8(%rax),%rcx
  406910:	48 8b 45 b8          	mov    -0x48(%rbp),%rax
  406914:	48 8b 00             	mov    (%rax),%rax
  406917:	48 89 ce             	mov    %rcx,%rsi
  40691a:	48 89 c7             	mov    %rax,%rdi
  40691d:	e8 04 fe ff ff       	callq  406726 <_ZSt8_DestroyIPN9ObjLoader13VertexIndicesES1_EvT_S3_RSaIT0_E>
  406922:	48 8b 45 b8          	mov    -0x48(%rbp),%rax
  406926:	48 8b 55 b8          	mov    -0x48(%rbp),%rdx
  40692a:	48 8b 52 10          	mov    0x10(%rdx),%rdx
  40692e:	48 89 d1             	mov    %rdx,%rcx
  406931:	48 8b 55 b8          	mov    -0x48(%rbp),%rdx
  406935:	48 8b 12             	mov    (%rdx),%rdx
  406938:	48 29 d1             	sub    %rdx,%rcx
  40693b:	48 89 ca             	mov    %rcx,%rdx
  40693e:	48 89 d1             	mov    %rdx,%rcx
  406941:	48 c1 f9 02          	sar    $0x2,%rcx
  406945:	48 ba ab aa aa aa aa 	movabs $0xaaaaaaaaaaaaaaab,%rdx
  40694c:	aa aa aa 
  40694f:	48 0f af d1          	imul   %rcx,%rdx
  406953:	48 89 d6             	mov    %rdx,%rsi
  406956:	48 8b 55 b8          	mov    -0x48(%rbp),%rdx
  40695a:	48 8b 0a             	mov    (%rdx),%rcx
  40695d:	48 89 f2             	mov    %rsi,%rdx
  406960:	48 89 ce             	mov    %rcx,%rsi
  406963:	48 89 c7             	mov    %rax,%rdi
  406966:	e8 c9 07 00 00       	callq  407134 <_ZNSt12_Vector_baseIN9ObjLoader13VertexIndicesESaIS1_EE13_M_deallocateEPS1_m>
  40696b:	48 8b 45 b8          	mov    -0x48(%rbp),%rax
  40696f:	48 8b 55 d0          	mov    -0x30(%rbp),%rdx
  406973:	48 89 10             	mov    %rdx,(%rax)
  406976:	48 8b 45 b8          	mov    -0x48(%rbp),%rax
  40697a:	48 8b 55 e8          	mov    -0x18(%rbp),%rdx
  40697e:	48 89 50 08          	mov    %rdx,0x8(%rax)
  406982:	48 8b 55 e0          	mov    -0x20(%rbp),%rdx
  406986:	48 89 d0             	mov    %rdx,%rax
  406989:	48 01 c0             	add    %rax,%rax
  40698c:	48 01 d0             	add    %rdx,%rax
  40698f:	48 c1 e0 02          	shl    $0x2,%rax
  406993:	48 89 c2             	mov    %rax,%rdx
  406996:	48 8b 45 d0          	mov    -0x30(%rbp),%rax
  40699a:	48 01 c2             	add    %rax,%rdx
  40699d:	48 8b 45 b8          	mov    -0x48(%rbp),%rax
  4069a1:	48 89 50 10          	mov    %rdx,0x10(%rax)
  4069a5:	e9 8c 00 00 00       	jmpq   406a36 <_ZNSt6vectorIN9ObjLoader13VertexIndicesESaIS1_EE17_M_realloc_insertIJRKS1_EEEvN9__gnu_cxx17__normal_iteratorIPS1_S3_EEDpOT_+0x274>
  4069aa:	48 89 c7             	mov    %rax,%rdi
  4069ad:	e8 ee cc ff ff       	callq  4036a0 <__cxa_begin_catch@plt>
  4069b2:	48 83 7d e8 00       	cmpq   $0x0,-0x18(%rbp)
  4069b7:	75 2c                	jne    4069e5 <_ZNSt6vectorIN9ObjLoader13VertexIndicesESaIS1_EE17_M_realloc_insertIJRKS1_EEEvN9__gnu_cxx17__normal_iteratorIPS1_S3_EEDpOT_+0x223>
  4069b9:	48 8b 55 d8          	mov    -0x28(%rbp),%rdx
  4069bd:	48 89 d0             	mov    %rdx,%rax
  4069c0:	48 01 c0             	add    %rax,%rax
  4069c3:	48 01 d0             	add    %rdx,%rax
  4069c6:	48 c1 e0 02          	shl    $0x2,%rax
  4069ca:	48 89 c2             	mov    %rax,%rdx
  4069cd:	48 8b 45 d0          	mov    -0x30(%rbp),%rax
  4069d1:	48 01 c2             	add    %rax,%rdx
  4069d4:	48 8b 45 b8          	mov    -0x48(%rbp),%rax
  4069d8:	48 89 d6             	mov    %rdx,%rsi
  4069db:	48 89 c7             	mov    %rax,%rdi
  4069de:	e8 f3 09 00 00       	callq  4073d6 <_ZNSt16allocator_traitsISaIN9ObjLoader13VertexIndicesEEE7destroyIS1_EEvRS2_PT_>
  4069e3:	eb 22                	jmp    406a07 <_ZNSt6vectorIN9ObjLoader13VertexIndicesESaIS1_EE17_M_realloc_insertIJRKS1_EEEvN9__gnu_cxx17__normal_iteratorIPS1_S3_EEDpOT_+0x245>
  4069e5:	48 8b 45 b8          	mov    -0x48(%rbp),%rax
  4069e9:	48 89 c7             	mov    %rax,%rdi
  4069ec:	e8 27 fd ff ff       	callq  406718 <_ZNSt12_Vector_baseIN9ObjLoader13VertexIndicesESaIS1_EE19_M_get_Tp_allocatorEv>
  4069f1:	48 89 c2             	mov    %rax,%rdx
  4069f4:	48 8b 4d e8          	mov    -0x18(%rbp),%rcx
  4069f8:	48 8b 45 d0          	mov    -0x30(%rbp),%rax
  4069fc:	48 89 ce             	mov    %rcx,%rsi
  4069ff:	48 89 c7             	mov    %rax,%rdi
  406a02:	e8 1f fd ff ff       	callq  406726 <_ZSt8_DestroyIPN9ObjLoader13VertexIndicesES1_EvT_S3_RSaIT0_E>
  406a07:	48 8b 45 b8          	mov    -0x48(%rbp),%rax
  406a0b:	48 8b 55 e0          	mov    -0x20(%rbp),%rdx
  406a0f:	48 8b 4d d0          	mov    -0x30(%rbp),%rcx
  406a13:	48 89 ce             	mov    %rcx,%rsi
  406a16:	48 89 c7             	mov    %rax,%rdi
  406a19:	e8 16 07 00 00       	callq  407134 <_ZNSt12_Vector_baseIN9ObjLoader13VertexIndicesESaIS1_EE13_M_deallocateEPS1_m>
  406a1e:	e8 4d d2 ff ff       	callq  403c70 <__cxa_rethrow@plt>
  406a23:	48 89 c3             	mov    %rax,%rbx
  406a26:	e8 55 d3 ff ff       	callq  403d80 <__cxa_end_catch@plt>
  406a2b:	48 89 d8             	mov    %rbx,%rax
  406a2e:	48 89 c7             	mov    %rax,%rdi
  406a31:	e8 ca d3 ff ff       	callq  403e00 <_Unwind_Resume@plt>
  406a36:	48 83 c4 50          	add    $0x50,%rsp
  406a3a:	5b                   	pop    %rbx
  406a3b:	41 5c                	pop    %r12
  406a3d:	5d                   	pop    %rbp
  406a3e:	c3                   	retq   

0000000000406a3f <_ZSt7forwardIRKN9ObjLoader7PolygonEEOT_RNSt16remove_referenceIS4_E4typeE>:
  406a3f:	55                   	push   %rbp
  406a40:	48 89 e5             	mov    %rsp,%rbp
  406a43:	48 89 7d f8          	mov    %rdi,-0x8(%rbp)
  406a47:	48 8b 45 f8          	mov    -0x8(%rbp),%rax
  406a4b:	5d                   	pop    %rbp
  406a4c:	c3                   	retq   

0000000000406a4d <_ZNSt16allocator_traitsISaIN9ObjLoader7PolygonEEE9constructIS1_JRKS1_EEEvRS2_PT_DpOT0_>:
  406a4d:	55                   	push   %rbp
  406a4e:	48 89 e5             	mov    %rsp,%rbp
  406a51:	48 83 ec 20          	sub    $0x20,%rsp
  406a55:	48 89 7d f8          	mov    %rdi,-0x8(%rbp)
  406a59:	48 89 75 f0          	mov    %rsi,-0x10(%rbp)
  406a5d:	48 89 55 e8          	mov    %rdx,-0x18(%rbp)
  406a61:	48 8b 45 e8          	mov    -0x18(%rbp),%rax
  406a65:	48 89 c7             	mov    %rax,%rdi
  406a68:	e8 d2 ff ff ff       	callq  406a3f <_ZSt7forwardIRKN9ObjLoader7PolygonEEOT_RNSt16remove_referenceIS4_E4typeE>
  406a6d:	48 89 c2             	mov    %rax,%rdx
  406a70:	48 8b 4d f0          	mov    -0x10(%rbp),%rcx
  406a74:	48 8b 45 f8          	mov    -0x8(%rbp),%rax
  406a78:	48 89 ce             	mov    %rcx,%rsi
  406a7b:	48 89 c7             	mov    %rax,%rdi
  406a7e:	e8 b3 09 00 00       	callq  407436 <_ZN9__gnu_cxx13new_allocatorIN9ObjLoader7PolygonEE9constructIS2_JRKS2_EEEvPT_DpOT0_>
  406a83:	90                   	nop
  406a84:	c9                   	leaveq 
  406a85:	c3                   	retq   

0000000000406a86 <_ZNSt6vectorIN9ObjLoader7PolygonESaIS1_EE3endEv>:
  406a86:	55                   	push   %rbp
  406a87:	48 89 e5             	mov    %rsp,%rbp
  406a8a:	48 83 ec 20          	sub    $0x20,%rsp
  406a8e:	48 89 7d e8          	mov    %rdi,-0x18(%rbp)
  406a92:	48 8b 45 e8          	mov    -0x18(%rbp),%rax
  406a96:	48 8d 50 08          	lea    0x8(%rax),%rdx
  406a9a:	48 8d 45 f8          	lea    -0x8(%rbp),%rax
  406a9e:	48 89 d6             	mov    %rdx,%rsi
  406aa1:	48 89 c7             	mov    %rax,%rdi
  406aa4:	e8 01 0a 00 00       	callq  4074aa <_ZN9__gnu_cxx17__normal_iteratorIPN9ObjLoader7PolygonESt6vectorIS2_SaIS2_EEEC1ERKS3_>
  406aa9:	48 8b 45 f8          	mov    -0x8(%rbp),%rax
  406aad:	c9                   	leaveq 
  406aae:	c3                   	retq   
  406aaf:	90                   	nop

0000000000406ab0 <_ZNSt6vectorIN9ObjLoader7PolygonESaIS1_EE17_M_realloc_insertIJRKS1_EEEvN9__gnu_cxx17__normal_iteratorIPS1_S3_EEDpOT_>:
  406ab0:	55                   	push   %rbp
  406ab1:	48 89 e5             	mov    %rsp,%rbp
  406ab4:	41 54                	push   %r12
  406ab6:	53                   	push   %rbx
  406ab7:	48 83 ec 50          	sub    $0x50,%rsp
  406abb:	48 89 7d b8          	mov    %rdi,-0x48(%rbp)
  406abf:	48 89 75 b0          	mov    %rsi,-0x50(%rbp)
  406ac3:	48 89 55 a8          	mov    %rdx,-0x58(%rbp)
  406ac7:	48 8b 45 b8          	mov    -0x48(%rbp),%rax
  406acb:	48 8d 15 52 10 03 00 	lea    0x31052(%rip),%rdx        # 437b24 <_ZStL19piecewise_construct+0xe4>
  406ad2:	be 01 00 00 00       	mov    $0x1,%esi
  406ad7:	48 89 c7             	mov    %rax,%rdi
  406ada:	e8 e9 09 00 00       	callq  4074c8 <_ZNKSt6vectorIN9ObjLoader7PolygonESaIS1_EE12_M_check_lenEmPKc>
  406adf:	48 89 45 e0          	mov    %rax,-0x20(%rbp)
  406ae3:	48 8b 45 b8          	mov    -0x48(%rbp),%rax
  406ae7:	48 89 c7             	mov    %rax,%rdi
  406aea:	e8 a3 0a 00 00       	callq  407592 <_ZNSt6vectorIN9ObjLoader7PolygonESaIS1_EE5beginEv>
  406aef:	48 89 45 c8          	mov    %rax,-0x38(%rbp)
  406af3:	48 8d 55 c8          	lea    -0x38(%rbp),%rdx
  406af7:	48 8d 45 b0          	lea    -0x50(%rbp),%rax
  406afb:	48 89 d6             	mov    %rdx,%rsi
  406afe:	48 89 c7             	mov    %rax,%rdi
  406b01:	e8 b1 0a 00 00       	callq  4075b7 <_ZN9__gnu_cxxmiIPN9ObjLoader7PolygonESt6vectorIS2_SaIS2_EEEENS_17__normal_iteratorIT_T0_E15difference_typeERKSA_SD_>
  406b06:	48 89 45 d8          	mov    %rax,-0x28(%rbp)
  406b0a:	48 8b 45 b8          	mov    -0x48(%rbp),%rax
  406b0e:	48 8b 55 e0          	mov    -0x20(%rbp),%rdx
  406b12:	48 89 d6             	mov    %rdx,%rsi
  406b15:	48 89 c7             	mov    %rax,%rdi
  406b18:	e8 dd 0a 00 00       	callq  4075fa <_ZNSt12_Vector_baseIN9ObjLoader7PolygonESaIS1_EE11_M_allocateEm>
  406b1d:	48 89 45 d0          	mov    %rax,-0x30(%rbp)
  406b21:	48 8b 45 d0          	mov    -0x30(%rbp),%rax
  406b25:	48 89 45 e8          	mov    %rax,-0x18(%rbp)
  406b29:	48 8b 45 a8          	mov    -0x58(%rbp),%rax
  406b2d:	48 89 c7             	mov    %rax,%rdi
  406b30:	e8 0a ff ff ff       	callq  406a3f <_ZSt7forwardIRKN9ObjLoader7PolygonEEOT_RNSt16remove_referenceIS4_E4typeE>
  406b35:	48 89 c6             	mov    %rax,%rsi
  406b38:	48 8b 45 d8          	mov    -0x28(%rbp),%rax
  406b3c:	48 c1 e0 05          	shl    $0x5,%rax
  406b40:	48 89 c2             	mov    %rax,%rdx
  406b43:	48 8b 45 d0          	mov    -0x30(%rbp),%rax
  406b47:	48 8d 0c 02          	lea    (%rdx,%rax,1),%rcx
  406b4b:	48 8b 45 b8          	mov    -0x48(%rbp),%rax
  406b4f:	48 89 f2             	mov    %rsi,%rdx
  406b52:	48 89 ce             	mov    %rcx,%rsi
  406b55:	48 89 c7             	mov    %rax,%rdi
  406b58:	e8 f0 fe ff ff       	callq  406a4d <_ZNSt16allocator_traitsISaIN9ObjLoader7PolygonEEE9constructIS1_JRKS1_EEEvRS2_PT_DpOT0_>
  406b5d:	48 c7 45 e8 00 00 00 	movq   $0x0,-0x18(%rbp)
  406b64:	00 
  406b65:	48 8b 45 b8          	mov    -0x48(%rbp),%rax
  406b69:	48 89 c7             	mov    %rax,%rdi
  406b6c:	e8 e5 f7 ff ff       	callq  406356 <_ZNSt12_Vector_baseIN9ObjLoader7PolygonESaIS1_EE19_M_get_Tp_allocatorEv>
  406b71:	48 89 c3             	mov    %rax,%rbx
  406b74:	48 8d 45 b0          	lea    -0x50(%rbp),%rax
  406b78:	48 89 c7             	mov    %rax,%rdi
  406b7b:	e8 ae 0a 00 00       	callq  40762e <_ZNK9__gnu_cxx17__normal_iteratorIPN9ObjLoader7PolygonESt6vectorIS2_SaIS2_EEE4baseEv>
  406b80:	48 8b 30             	mov    (%rax),%rsi
  406b83:	48 8b 45 b8          	mov    -0x48(%rbp),%rax
  406b87:	48 8b 00             	mov    (%rax),%rax
  406b8a:	48 8b 55 d0          	mov    -0x30(%rbp),%rdx
  406b8e:	48 89 d9             	mov    %rbx,%rcx
  406b91:	48 89 c7             	mov    %rax,%rdi
  406b94:	e8 a3 0a 00 00       	callq  40763c <_ZSt34__uninitialized_move_if_noexcept_aIPN9ObjLoader7PolygonES2_SaIS1_EET0_T_S5_S4_RT1_>
  406b99:	48 89 45 e8          	mov    %rax,-0x18(%rbp)
  406b9d:	48 83 45 e8 20       	addq   $0x20,-0x18(%rbp)
  406ba2:	48 8b 45 b8          	mov    -0x48(%rbp),%rax
  406ba6:	48 89 c7             	mov    %rax,%rdi
  406ba9:	e8 a8 f7 ff ff       	callq  406356 <_ZNSt12_Vector_baseIN9ObjLoader7PolygonESaIS1_EE19_M_get_Tp_allocatorEv>
  406bae:	49 89 c4             	mov    %rax,%r12
  406bb1:	48 8b 45 b8          	mov    -0x48(%rbp),%rax
  406bb5:	48 8b 58 08          	mov    0x8(%rax),%rbx
  406bb9:	48 8d 45 b0          	lea    -0x50(%rbp),%rax
  406bbd:	48 89 c7             	mov    %rax,%rdi
  406bc0:	e8 69 0a 00 00       	callq  40762e <_ZNK9__gnu_cxx17__normal_iteratorIPN9ObjLoader7PolygonESt6vectorIS2_SaIS2_EEE4baseEv>
  406bc5:	48 8b 00             	mov    (%rax),%rax
  406bc8:	48 8b 55 e8          	mov    -0x18(%rbp),%rdx
  406bcc:	4c 89 e1             	mov    %r12,%rcx
  406bcf:	48 89 de             	mov    %rbx,%rsi
  406bd2:	48 89 c7             	mov    %rax,%rdi
  406bd5:	e8 62 0a 00 00       	callq  40763c <_ZSt34__uninitialized_move_if_noexcept_aIPN9ObjLoader7PolygonES2_SaIS1_EET0_T_S5_S4_RT1_>
  406bda:	48 89 45 e8          	mov    %rax,-0x18(%rbp)
  406bde:	48 8b 45 b8          	mov    -0x48(%rbp),%rax
  406be2:	48 89 c7             	mov    %rax,%rdi
  406be5:	e8 6c f7 ff ff       	callq  406356 <_ZNSt12_Vector_baseIN9ObjLoader7PolygonESaIS1_EE19_M_get_Tp_allocatorEv>
  406bea:	48 89 c2             	mov    %rax,%rdx
  406bed:	48 8b 45 b8          	mov    -0x48(%rbp),%rax
  406bf1:	48 8b 48 08          	mov    0x8(%rax),%rcx
  406bf5:	48 8b 45 b8          	mov    -0x48(%rbp),%rax
  406bf9:	48 8b 00             	mov    (%rax),%rax
  406bfc:	48 89 ce             	mov    %rcx,%rsi
  406bff:	48 89 c7             	mov    %rax,%rdi
  406c02:	e8 5d f7 ff ff       	callq  406364 <_ZSt8_DestroyIPN9ObjLoader7PolygonES1_EvT_S3_RSaIT0_E>
  406c07:	48 8b 45 b8          	mov    -0x48(%rbp),%rax
  406c0b:	48 8b 55 b8          	mov    -0x48(%rbp),%rdx
  406c0f:	48 8b 52 10          	mov    0x10(%rdx),%rdx
  406c13:	48 89 d1             	mov    %rdx,%rcx
  406c16:	48 8b 55 b8          	mov    -0x48(%rbp),%rdx
  406c1a:	48 8b 12             	mov    (%rdx),%rdx
  406c1d:	48 29 d1             	sub    %rdx,%rcx
  406c20:	48 89 ca             	mov    %rcx,%rdx
  406c23:	48 c1 fa 05          	sar    $0x5,%rdx
  406c27:	48 89 d6             	mov    %rdx,%rsi
  406c2a:	48 8b 55 b8          	mov    -0x48(%rbp),%rdx
  406c2e:	48 8b 0a             	mov    (%rdx),%rcx
  406c31:	48 89 f2             	mov    %rsi,%rdx
  406c34:	48 89 ce             	mov    %rcx,%rsi
  406c37:	48 89 c7             	mov    %rax,%rdi
  406c3a:	e8 d3 01 00 00       	callq  406e12 <_ZNSt12_Vector_baseIN9ObjLoader7PolygonESaIS1_EE13_M_deallocateEPS1_m>
  406c3f:	48 8b 45 b8          	mov    -0x48(%rbp),%rax
  406c43:	48 8b 55 d0          	mov    -0x30(%rbp),%rdx
  406c47:	48 89 10             	mov    %rdx,(%rax)
  406c4a:	48 8b 45 b8          	mov    -0x48(%rbp),%rax
  406c4e:	48 8b 55 e8          	mov    -0x18(%rbp),%rdx
  406c52:	48 89 50 08          	mov    %rdx,0x8(%rax)
  406c56:	48 8b 45 e0          	mov    -0x20(%rbp),%rax
  406c5a:	48 c1 e0 05          	shl    $0x5,%rax
  406c5e:	48 89 c2             	mov    %rax,%rdx
  406c61:	48 8b 45 d0          	mov    -0x30(%rbp),%rax
  406c65:	48 01 c2             	add    %rax,%rdx
  406c68:	48 8b 45 b8          	mov    -0x48(%rbp),%rax
  406c6c:	48 89 50 10          	mov    %rdx,0x10(%rax)
  406c70:	e9 83 00 00 00       	jmpq   406cf8 <_ZNSt6vectorIN9ObjLoader7PolygonESaIS1_EE17_M_realloc_insertIJRKS1_EEEvN9__gnu_cxx17__normal_iteratorIPS1_S3_EEDpOT_+0x248>
  406c75:	48 89 c7             	mov    %rax,%rdi
  406c78:	e8 23 ca ff ff       	callq  4036a0 <__cxa_begin_catch@plt>
  406c7d:	48 83 7d e8 00       	cmpq   $0x0,-0x18(%rbp)
  406c82:	75 23                	jne    406ca7 <_ZNSt6vectorIN9ObjLoader7PolygonESaIS1_EE17_M_realloc_insertIJRKS1_EEEvN9__gnu_cxx17__normal_iteratorIPS1_S3_EEDpOT_+0x1f7>
  406c84:	48 8b 45 d8          	mov    -0x28(%rbp),%rax
  406c88:	48 c1 e0 05          	shl    $0x5,%rax
  406c8c:	48 89 c2             	mov    %rax,%rdx
  406c8f:	48 8b 45 d0          	mov    -0x30(%rbp),%rax
  406c93:	48 01 c2             	add    %rax,%rdx
  406c96:	48 8b 45 b8          	mov    -0x48(%rbp),%rax
  406c9a:	48 89 d6             	mov    %rdx,%rsi
  406c9d:	48 89 c7             	mov    %rax,%rdi
  406ca0:	e8 eb 09 00 00       	callq  407690 <_ZNSt16allocator_traitsISaIN9ObjLoader7PolygonEEE7destroyIS1_EEvRS2_PT_>
  406ca5:	eb 22                	jmp    406cc9 <_ZNSt6vectorIN9ObjLoader7PolygonESaIS1_EE17_M_realloc_insertIJRKS1_EEEvN9__gnu_cxx17__normal_iteratorIPS1_S3_EEDpOT_+0x219>
  406ca7:	48 8b 45 b8          	mov    -0x48(%rbp),%rax
  406cab:	48 89 c7             	mov    %rax,%rdi
  406cae:	e8 a3 f6 ff ff       	callq  406356 <_ZNSt12_Vector_baseIN9ObjLoader7PolygonESaIS1_EE19_M_get_Tp_allocatorEv>
  406cb3:	48 89 c2             	mov    %rax,%rdx
  406cb6:	48 8b 4d e8          	mov    -0x18(%rbp),%rcx
  406cba:	48 8b 45 d0          	mov    -0x30(%rbp),%rax
  406cbe:	48 89 ce             	mov    %rcx,%rsi
  406cc1:	48 89 c7             	mov    %rax,%rdi
  406cc4:	e8 9b f6 ff ff       	callq  406364 <_ZSt8_DestroyIPN9ObjLoader7PolygonES1_EvT_S3_RSaIT0_E>
  406cc9:	48 8b 45 b8          	mov    -0x48(%rbp),%rax
  406ccd:	48 8b 55 e0          	mov    -0x20(%rbp),%rdx
  406cd1:	48 8b 4d d0          	mov    -0x30(%rbp),%rcx
  406cd5:	48 89 ce             	mov    %rcx,%rsi
  406cd8:	48 89 c7             	mov    %rax,%rdi
  406cdb:	e8 32 01 00 00       	callq  406e12 <_ZNSt12_Vector_baseIN9ObjLoader7PolygonESaIS1_EE13_M_deallocateEPS1_m>
  406ce0:	e8 8b cf ff ff       	callq  403c70 <__cxa_rethrow@plt>
  406ce5:	48 89 c3             	mov    %rax,%rbx
  406ce8:	e8 93 d0 ff ff       	callq  403d80 <__cxa_end_catch@plt>
  406ced:	48 89 d8             	mov    %rbx,%rax
  406cf0:	48 89 c7             	mov    %rax,%rdi
  406cf3:	e8 08 d1 ff ff       	callq  403e00 <_Unwind_Resume@plt>
  406cf8:	48 83 c4 50          	add    $0x50,%rsp
  406cfc:	5b                   	pop    %rbx
  406cfd:	41 5c                	pop    %r12
  406cff:	5d                   	pop    %rbp
  406d00:	c3                   	retq   
  406d01:	90                   	nop

0000000000406d02 <_ZNSt12_Vector_baseIN9ObjLoader7Vector3ESaIS1_EE12_Vector_implC1Ev>:
  406d02:	55                   	push   %rbp
  406d03:	48 89 e5             	mov    %rsp,%rbp
  406d06:	48 83 ec 10          	sub    $0x10,%rsp
  406d0a:	48 89 7d f8          	mov    %rdi,-0x8(%rbp)
  406d0e:	48 8b 45 f8          	mov    -0x8(%rbp),%rax
  406d12:	48 89 c7             	mov    %rax,%rdi
  406d15:	e8 9c 09 00 00       	callq  4076b6 <_ZNSaIN9ObjLoader7Vector3EEC1Ev>
  406d1a:	48 8b 45 f8          	mov    -0x8(%rbp),%rax
  406d1e:	48 c7 00 00 00 00 00 	movq   $0x0,(%rax)
  406d25:	48 8b 45 f8          	mov    -0x8(%rbp),%rax
  406d29:	48 c7 40 08 00 00 00 	movq   $0x0,0x8(%rax)
  406d30:	00 
  406d31:	48 8b 45 f8          	mov    -0x8(%rbp),%rax
  406d35:	48 c7 40 10 00 00 00 	movq   $0x0,0x10(%rax)
  406d3c:	00 
  406d3d:	90                   	nop
  406d3e:	c9                   	leaveq 
  406d3f:	c3                   	retq   

0000000000406d40 <_ZNSaIN9ObjLoader7Vector3EED1Ev>:
  406d40:	55                   	push   %rbp
  406d41:	48 89 e5             	mov    %rsp,%rbp
  406d44:	48 83 ec 10          	sub    $0x10,%rsp
  406d48:	48 89 7d f8          	mov    %rdi,-0x8(%rbp)
  406d4c:	48 8b 45 f8          	mov    -0x8(%rbp),%rax
  406d50:	48 89 c7             	mov    %rax,%rdi
  406d53:	e8 7a 09 00 00       	callq  4076d2 <_ZN9__gnu_cxx13new_allocatorIN9ObjLoader7Vector3EED1Ev>
  406d58:	90                   	nop
  406d59:	c9                   	leaveq 
  406d5a:	c3                   	retq   
  406d5b:	90                   	nop

0000000000406d5c <_ZNSt12_Vector_baseIN9ObjLoader7Vector3ESaIS1_EE13_M_deallocateEPS1_m>:
  406d5c:	55                   	push   %rbp
  406d5d:	48 89 e5             	mov    %rsp,%rbp
  406d60:	48 83 ec 20          	sub    $0x20,%rsp
  406d64:	48 89 7d f8          	mov    %rdi,-0x8(%rbp)
  406d68:	48 89 75 f0          	mov    %rsi,-0x10(%rbp)
  406d6c:	48 89 55 e8          	mov    %rdx,-0x18(%rbp)
  406d70:	48 83 7d f0 00       	cmpq   $0x0,-0x10(%rbp)
  406d75:	74 17                	je     406d8e <_ZNSt12_Vector_baseIN9ObjLoader7Vector3ESaIS1_EE13_M_deallocateEPS1_m+0x32>
  406d77:	48 8b 45 f8          	mov    -0x8(%rbp),%rax
  406d7b:	48 8b 55 e8          	mov    -0x18(%rbp),%rdx
  406d7f:	48 8b 4d f0          	mov    -0x10(%rbp),%rcx
  406d83:	48 89 ce             	mov    %rcx,%rsi
  406d86:	48 89 c7             	mov    %rax,%rdi
  406d89:	e8 4f 09 00 00       	callq  4076dd <_ZNSt16allocator_traitsISaIN9ObjLoader7Vector3EEE10deallocateERS2_PS1_m>
  406d8e:	90                   	nop
  406d8f:	c9                   	leaveq 
  406d90:	c3                   	retq   

0000000000406d91 <_ZSt8_DestroyIPN9ObjLoader7Vector3EEvT_S3_>:
  406d91:	55                   	push   %rbp
  406d92:	48 89 e5             	mov    %rsp,%rbp
  406d95:	48 83 ec 10          	sub    $0x10,%rsp
  406d99:	48 89 7d f8          	mov    %rdi,-0x8(%rbp)
  406d9d:	48 89 75 f0          	mov    %rsi,-0x10(%rbp)
  406da1:	48 8b 55 f0          	mov    -0x10(%rbp),%rdx
  406da5:	48 8b 45 f8          	mov    -0x8(%rbp),%rax
  406da9:	48 89 d6             	mov    %rdx,%rsi
  406dac:	48 89 c7             	mov    %rax,%rdi
  406daf:	e8 57 09 00 00       	callq  40770b <_ZNSt12_Destroy_auxILb1EE9__destroyIPN9ObjLoader7Vector3EEEvT_S5_>
  406db4:	90                   	nop
  406db5:	c9                   	leaveq 
  406db6:	c3                   	retq   
  406db7:	90                   	nop

0000000000406db8 <_ZNSt12_Vector_baseIN9ObjLoader7PolygonESaIS1_EE12_Vector_implC1Ev>:
  406db8:	55                   	push   %rbp
  406db9:	48 89 e5             	mov    %rsp,%rbp
  406dbc:	48 83 ec 10          	sub    $0x10,%rsp
  406dc0:	48 89 7d f8          	mov    %rdi,-0x8(%rbp)
  406dc4:	48 8b 45 f8          	mov    -0x8(%rbp),%rax
  406dc8:	48 89 c7             	mov    %rax,%rdi
  406dcb:	e8 4a 09 00 00       	callq  40771a <_ZNSaIN9ObjLoader7PolygonEEC1Ev>
  406dd0:	48 8b 45 f8          	mov    -0x8(%rbp),%rax
  406dd4:	48 c7 00 00 00 00 00 	movq   $0x0,(%rax)
  406ddb:	48 8b 45 f8          	mov    -0x8(%rbp),%rax
  406ddf:	48 c7 40 08 00 00 00 	movq   $0x0,0x8(%rax)
  406de6:	00 
  406de7:	48 8b 45 f8          	mov    -0x8(%rbp),%rax
  406deb:	48 c7 40 10 00 00 00 	movq   $0x0,0x10(%rax)
  406df2:	00 
  406df3:	90                   	nop
  406df4:	c9                   	leaveq 
  406df5:	c3                   	retq   

0000000000406df6 <_ZNSaIN9ObjLoader7PolygonEED1Ev>:
  406df6:	55                   	push   %rbp
  406df7:	48 89 e5             	mov    %rsp,%rbp
  406dfa:	48 83 ec 10          	sub    $0x10,%rsp
  406dfe:	48 89 7d f8          	mov    %rdi,-0x8(%rbp)
  406e02:	48 8b 45 f8          	mov    -0x8(%rbp),%rax
  406e06:	48 89 c7             	mov    %rax,%rdi
  406e09:	e8 28 09 00 00       	callq  407736 <_ZN9__gnu_cxx13new_allocatorIN9ObjLoader7PolygonEED1Ev>
  406e0e:	90                   	nop
  406e0f:	c9                   	leaveq 
  406e10:	c3                   	retq   
  406e11:	90                   	nop

0000000000406e12 <_ZNSt12_Vector_baseIN9ObjLoader7PolygonESaIS1_EE13_M_deallocateEPS1_m>:
  406e12:	55                   	push   %rbp
  406e13:	48 89 e5             	mov    %rsp,%rbp
  406e16:	48 83 ec 20          	sub    $0x20,%rsp
  406e1a:	48 89 7d f8          	mov    %rdi,-0x8(%rbp)
  406e1e:	48 89 75 f0          	mov    %rsi,-0x10(%rbp)
  406e22:	48 89 55 e8          	mov    %rdx,-0x18(%rbp)
  406e26:	48 83 7d f0 00       	cmpq   $0x0,-0x10(%rbp)
  406e2b:	74 17                	je     406e44 <_ZNSt12_Vector_baseIN9ObjLoader7PolygonESaIS1_EE13_M_deallocateEPS1_m+0x32>
  406e2d:	48 8b 45 f8          	mov    -0x8(%rbp),%rax
  406e31:	48 8b 55 e8          	mov    -0x18(%rbp),%rdx
  406e35:	48 8b 4d f0          	mov    -0x10(%rbp),%rcx
  406e39:	48 89 ce             	mov    %rcx,%rsi
  406e3c:	48 89 c7             	mov    %rax,%rdi
  406e3f:	e8 fd 08 00 00       	callq  407741 <_ZNSt16allocator_traitsISaIN9ObjLoader7PolygonEEE10deallocateERS2_PS1_m>
  406e44:	90                   	nop
  406e45:	c9                   	leaveq 
  406e46:	c3                   	retq   

0000000000406e47 <_ZSt8_DestroyIPN9ObjLoader7PolygonEEvT_S3_>:
  406e47:	55                   	push   %rbp
  406e48:	48 89 e5             	mov    %rsp,%rbp
  406e4b:	48 83 ec 10          	sub    $0x10,%rsp
  406e4f:	48 89 7d f8          	mov    %rdi,-0x8(%rbp)
  406e53:	48 89 75 f0          	mov    %rsi,-0x10(%rbp)
  406e57:	48 8b 55 f0          	mov    -0x10(%rbp),%rdx
  406e5b:	48 8b 45 f8          	mov    -0x8(%rbp),%rax
  406e5f:	48 89 d6             	mov    %rdx,%rsi
  406e62:	48 89 c7             	mov    %rax,%rdi
  406e65:	e8 13 09 00 00       	callq  40777d <_ZNSt12_Destroy_auxILb0EE9__destroyIPN9ObjLoader7PolygonEEEvT_S5_>
  406e6a:	90                   	nop
  406e6b:	c9                   	leaveq 
  406e6c:	c3                   	retq   
  406e6d:	90                   	nop

0000000000406e6e <_ZN9__gnu_cxx13new_allocatorIN9ObjLoader7Vector3EE9constructIS2_JRKS2_EEEvPT_DpOT0_>:
  406e6e:	55                   	push   %rbp
  406e6f:	48 89 e5             	mov    %rsp,%rbp
  406e72:	53                   	push   %rbx
  406e73:	48 83 ec 28          	sub    $0x28,%rsp
  406e77:	48 89 7d e8          	mov    %rdi,-0x18(%rbp)
  406e7b:	48 89 75 e0          	mov    %rsi,-0x20(%rbp)
  406e7f:	48 89 55 d8          	mov    %rdx,-0x28(%rbp)
  406e83:	48 8b 45 d8          	mov    -0x28(%rbp),%rax
  406e87:	48 89 c7             	mov    %rax,%rdi
  406e8a:	e8 ff f4 ff ff       	callq  40638e <_ZSt7forwardIRKN9ObjLoader7Vector3EEOT_RNSt16remove_referenceIS4_E4typeE>
  406e8f:	48 89 c3             	mov    %rax,%rbx
  406e92:	48 8b 45 e0          	mov    -0x20(%rbp),%rax
  406e96:	48 89 c6             	mov    %rax,%rsi
  406e99:	bf 0c 00 00 00       	mov    $0xc,%edi
  406e9e:	e8 59 ef ff ff       	callq  405dfc <_ZnwmPv>
  406ea3:	48 85 c0             	test   %rax,%rax
  406ea6:	74 0c                	je     406eb4 <_ZN9__gnu_cxx13new_allocatorIN9ObjLoader7Vector3EE9constructIS2_JRKS2_EEEvPT_DpOT0_+0x46>
  406ea8:	48 8b 13             	mov    (%rbx),%rdx
  406eab:	48 89 10             	mov    %rdx,(%rax)
  406eae:	8b 53 08             	mov    0x8(%rbx),%edx
  406eb1:	89 50 08             	mov    %edx,0x8(%rax)
  406eb4:	90                   	nop
  406eb5:	48 83 c4 28          	add    $0x28,%rsp
  406eb9:	5b                   	pop    %rbx
  406eba:	5d                   	pop    %rbp
  406ebb:	c3                   	retq   

0000000000406ebc <_ZN9__gnu_cxx17__normal_iteratorIPN9ObjLoader7Vector3ESt6vectorIS2_SaIS2_EEEC1ERKS3_>:
  406ebc:	55                   	push   %rbp
  406ebd:	48 89 e5             	mov    %rsp,%rbp
  406ec0:	48 89 7d f8          	mov    %rdi,-0x8(%rbp)
  406ec4:	48 89 75 f0          	mov    %rsi,-0x10(%rbp)
  406ec8:	48 8b 45 f0          	mov    -0x10(%rbp),%rax
  406ecc:	48 8b 10             	mov    (%rax),%rdx
  406ecf:	48 8b 45 f8          	mov    -0x8(%rbp),%rax
  406ed3:	48 89 10             	mov    %rdx,(%rax)
  406ed6:	90                   	nop
  406ed7:	5d                   	pop    %rbp
  406ed8:	c3                   	retq   
  406ed9:	90                   	nop

0000000000406eda <_ZNKSt6vectorIN9ObjLoader7Vector3ESaIS1_EE12_M_check_lenEmPKc>:
  406eda:	55                   	push   %rbp
  406edb:	48 89 e5             	mov    %rsp,%rbp
  406ede:	53                   	push   %rbx
  406edf:	48 83 ec 38          	sub    $0x38,%rsp
  406ee3:	48 89 7d d8          	mov    %rdi,-0x28(%rbp)
  406ee7:	48 89 75 d0          	mov    %rsi,-0x30(%rbp)
  406eeb:	48 89 55 c8          	mov    %rdx,-0x38(%rbp)
  406eef:	48 8b 45 d8          	mov    -0x28(%rbp),%rax
  406ef3:	48 89 c7             	mov    %rax,%rdi
  406ef6:	e8 bb 08 00 00       	callq  4077b6 <_ZNKSt6vectorIN9ObjLoader7Vector3ESaIS1_EE8max_sizeEv>
  406efb:	48 89 c3             	mov    %rax,%rbx
  406efe:	48 8b 45 d8          	mov    -0x28(%rbp),%rax
  406f02:	48 89 c7             	mov    %rax,%rdi
  406f05:	e8 90 f2 ff ff       	callq  40619a <_ZNKSt6vectorIN9ObjLoader7Vector3ESaIS1_EE4sizeEv>
  406f0a:	48 29 c3             	sub    %rax,%rbx
  406f0d:	48 89 da             	mov    %rbx,%rdx
  406f10:	48 8b 45 d0          	mov    -0x30(%rbp),%rax
  406f14:	48 39 c2             	cmp    %rax,%rdx
  406f17:	0f 92 c0             	setb   %al
  406f1a:	84 c0                	test   %al,%al
  406f1c:	74 0c                	je     406f2a <_ZNKSt6vectorIN9ObjLoader7Vector3ESaIS1_EE12_M_check_lenEmPKc+0x50>
  406f1e:	48 8b 45 c8          	mov    -0x38(%rbp),%rax
  406f22:	48 89 c7             	mov    %rax,%rdi
  406f25:	e8 36 c8 ff ff       	callq  403760 <_ZSt20__throw_length_errorPKc@plt>
  406f2a:	48 8b 45 d8          	mov    -0x28(%rbp),%rax
  406f2e:	48 89 c7             	mov    %rax,%rdi
  406f31:	e8 64 f2 ff ff       	callq  40619a <_ZNKSt6vectorIN9ObjLoader7Vector3ESaIS1_EE4sizeEv>
  406f36:	48 89 c3             	mov    %rax,%rbx
  406f39:	48 8b 45 d8          	mov    -0x28(%rbp),%rax
  406f3d:	48 89 c7             	mov    %rax,%rdi
  406f40:	e8 55 f2 ff ff       	callq  40619a <_ZNKSt6vectorIN9ObjLoader7Vector3ESaIS1_EE4sizeEv>
  406f45:	48 89 45 e0          	mov    %rax,-0x20(%rbp)
  406f49:	48 8d 55 d0          	lea    -0x30(%rbp),%rdx
  406f4d:	48 8d 45 e0          	lea    -0x20(%rbp),%rax
  406f51:	48 89 d6             	mov    %rdx,%rsi
  406f54:	48 89 c7             	mov    %rax,%rdi
  406f57:	e8 7c 08 00 00       	callq  4077d8 <_ZSt3maxImERKT_S2_S2_>
  406f5c:	48 8b 00             	mov    (%rax),%rax
  406f5f:	48 01 d8             	add    %rbx,%rax
  406f62:	48 89 45 e8          	mov    %rax,-0x18(%rbp)
  406f66:	48 8b 45 d8          	mov    -0x28(%rbp),%rax
  406f6a:	48 89 c7             	mov    %rax,%rdi
  406f6d:	e8 28 f2 ff ff       	callq  40619a <_ZNKSt6vectorIN9ObjLoader7Vector3ESaIS1_EE4sizeEv>
  406f72:	48 39 45 e8          	cmp    %rax,-0x18(%rbp)
  406f76:	72 12                	jb     406f8a <_ZNKSt6vectorIN9ObjLoader7Vector3ESaIS1_EE12_M_check_lenEmPKc+0xb0>
  406f78:	48 8b 45 d8          	mov    -0x28(%rbp),%rax
  406f7c:	48 89 c7             	mov    %rax,%rdi
  406f7f:	e8 32 08 00 00       	callq  4077b6 <_ZNKSt6vectorIN9ObjLoader7Vector3ESaIS1_EE8max_sizeEv>
  406f84:	48 39 45 e8          	cmp    %rax,-0x18(%rbp)
  406f88:	76 0e                	jbe    406f98 <_ZNKSt6vectorIN9ObjLoader7Vector3ESaIS1_EE12_M_check_lenEmPKc+0xbe>
  406f8a:	48 8b 45 d8          	mov    -0x28(%rbp),%rax
  406f8e:	48 89 c7             	mov    %rax,%rdi
  406f91:	e8 20 08 00 00       	callq  4077b6 <_ZNKSt6vectorIN9ObjLoader7Vector3ESaIS1_EE8max_sizeEv>
  406f96:	eb 04                	jmp    406f9c <_ZNKSt6vectorIN9ObjLoader7Vector3ESaIS1_EE12_M_check_lenEmPKc+0xc2>
  406f98:	48 8b 45 e8          	mov    -0x18(%rbp),%rax
  406f9c:	48 83 c4 38          	add    $0x38,%rsp
  406fa0:	5b                   	pop    %rbx
  406fa1:	5d                   	pop    %rbp
  406fa2:	c3                   	retq   
  406fa3:	90                   	nop

0000000000406fa4 <_ZNSt6vectorIN9ObjLoader7Vector3ESaIS1_EE5beginEv>:
  406fa4:	55                   	push   %rbp
  406fa5:	48 89 e5             	mov    %rsp,%rbp
  406fa8:	48 83 ec 20          	sub    $0x20,%rsp
  406fac:	48 89 7d e8          	mov    %rdi,-0x18(%rbp)
  406fb0:	48 8b 55 e8          	mov    -0x18(%rbp),%rdx
  406fb4:	48 8d 45 f8          	lea    -0x8(%rbp),%rax
  406fb8:	48 89 d6             	mov    %rdx,%rsi
  406fbb:	48 89 c7             	mov    %rax,%rdi
  406fbe:	e8 f9 fe ff ff       	callq  406ebc <_ZN9__gnu_cxx17__normal_iteratorIPN9ObjLoader7Vector3ESt6vectorIS2_SaIS2_EEEC1ERKS3_>
  406fc3:	48 8b 45 f8          	mov    -0x8(%rbp),%rax
  406fc7:	c9                   	leaveq 
  406fc8:	c3                   	retq   

0000000000406fc9 <_ZN9__gnu_cxxmiIPN9ObjLoader7Vector3ESt6vectorIS2_SaIS2_EEEENS_17__normal_iteratorIT_T0_E15difference_typeERKSA_SD_>:
  406fc9:	55                   	push   %rbp
  406fca:	48 89 e5             	mov    %rsp,%rbp
  406fcd:	53                   	push   %rbx
  406fce:	48 83 ec 18          	sub    $0x18,%rsp
  406fd2:	48 89 7d e8          	mov    %rdi,-0x18(%rbp)
  406fd6:	48 89 75 e0          	mov    %rsi,-0x20(%rbp)
  406fda:	48 8b 45 e8          	mov    -0x18(%rbp),%rax
  406fde:	48 89 c7             	mov    %rax,%rdi
  406fe1:	e8 6c 00 00 00       	callq  407052 <_ZNK9__gnu_cxx17__normal_iteratorIPN9ObjLoader7Vector3ESt6vectorIS2_SaIS2_EEE4baseEv>
  406fe6:	48 8b 00             	mov    (%rax),%rax
  406fe9:	48 89 c3             	mov    %rax,%rbx
  406fec:	48 8b 45 e0          	mov    -0x20(%rbp),%rax
  406ff0:	48 89 c7             	mov    %rax,%rdi
  406ff3:	e8 5a 00 00 00       	callq  407052 <_ZNK9__gnu_cxx17__normal_iteratorIPN9ObjLoader7Vector3ESt6vectorIS2_SaIS2_EEE4baseEv>
  406ff8:	48 8b 00             	mov    (%rax),%rax
  406ffb:	48 29 c3             	sub    %rax,%rbx
  406ffe:	48 89 d8             	mov    %rbx,%rax
  407001:	48 c1 f8 02          	sar    $0x2,%rax
  407005:	48 89 c2             	mov    %rax,%rdx
  407008:	48 b8 ab aa aa aa aa 	movabs $0xaaaaaaaaaaaaaaab,%rax
  40700f:	aa aa aa 
  407012:	48 0f af c2          	imul   %rdx,%rax
  407016:	48 83 c4 18          	add    $0x18,%rsp
  40701a:	5b                   	pop    %rbx
  40701b:	5d                   	pop    %rbp
  40701c:	c3                   	retq   
  40701d:	90                   	nop

000000000040701e <_ZNSt12_Vector_baseIN9ObjLoader7Vector3ESaIS1_EE11_M_allocateEm>:
  40701e:	55                   	push   %rbp
  40701f:	48 89 e5             	mov    %rsp,%rbp
  407022:	48 83 ec 10          	sub    $0x10,%rsp
  407026:	48 89 7d f8          	mov    %rdi,-0x8(%rbp)
  40702a:	48 89 75 f0          	mov    %rsi,-0x10(%rbp)
  40702e:	48 83 7d f0 00       	cmpq   $0x0,-0x10(%rbp)
  407033:	74 15                	je     40704a <_ZNSt12_Vector_baseIN9ObjLoader7Vector3ESaIS1_EE11_M_allocateEm+0x2c>
  407035:	48 8b 45 f8          	mov    -0x8(%rbp),%rax
  407039:	48 8b 55 f0          	mov    -0x10(%rbp),%rdx
  40703d:	48 89 d6             	mov    %rdx,%rsi
  407040:	48 89 c7             	mov    %rax,%rdi
  407043:	e8 bb 07 00 00       	callq  407803 <_ZNSt16allocator_traitsISaIN9ObjLoader7Vector3EEE8allocateERS2_m>
  407048:	eb 05                	jmp    40704f <_ZNSt12_Vector_baseIN9ObjLoader7Vector3ESaIS1_EE11_M_allocateEm+0x31>
  40704a:	b8 00 00 00 00       	mov    $0x0,%eax
  40704f:	c9                   	leaveq 
  407050:	c3                   	retq   
  407051:	90                   	nop

0000000000407052 <_ZNK9__gnu_cxx17__normal_iteratorIPN9ObjLoader7Vector3ESt6vectorIS2_SaIS2_EEE4baseEv>:
  407052:	55                   	push   %rbp
  407053:	48 89 e5             	mov    %rsp,%rbp
  407056:	48 89 7d f8          	mov    %rdi,-0x8(%rbp)
  40705a:	48 8b 45 f8          	mov    -0x8(%rbp),%rax
  40705e:	5d                   	pop    %rbp
  40705f:	c3                   	retq   

0000000000407060 <_ZSt34__uninitialized_move_if_noexcept_aIPN9ObjLoader7Vector3ES2_SaIS1_EET0_T_S5_S4_RT1_>:
  407060:	55                   	push   %rbp
  407061:	48 89 e5             	mov    %rsp,%rbp
  407064:	53                   	push   %rbx
  407065:	48 83 ec 28          	sub    $0x28,%rsp
  407069:	48 89 7d e8          	mov    %rdi,-0x18(%rbp)
  40706d:	48 89 75 e0          	mov    %rsi,-0x20(%rbp)
  407071:	48 89 55 d8          	mov    %rdx,-0x28(%rbp)
  407075:	48 89 4d d0          	mov    %rcx,-0x30(%rbp)
  407079:	48 8b 45 e0          	mov    -0x20(%rbp),%rax
  40707d:	48 89 c7             	mov    %rax,%rdi
  407080:	e8 a8 07 00 00       	callq  40782d <_ZSt32__make_move_if_noexcept_iteratorIN9ObjLoader7Vector3ESt13move_iteratorIPS1_EET0_PT_>
  407085:	48 89 c3             	mov    %rax,%rbx
  407088:	48 8b 45 e8          	mov    -0x18(%rbp),%rax
  40708c:	48 89 c7             	mov    %rax,%rdi
  40708f:	e8 99 07 00 00       	callq  40782d <_ZSt32__make_move_if_noexcept_iteratorIN9ObjLoader7Vector3ESt13move_iteratorIPS1_EET0_PT_>
  407094:	48 89 c7             	mov    %rax,%rdi
  407097:	48 8b 55 d0          	mov    -0x30(%rbp),%rdx
  40709b:	48 8b 45 d8          	mov    -0x28(%rbp),%rax
  40709f:	48 89 d1             	mov    %rdx,%rcx
  4070a2:	48 89 c2             	mov    %rax,%rdx
  4070a5:	48 89 de             	mov    %rbx,%rsi
  4070a8:	e8 a5 07 00 00       	callq  407852 <_ZSt22__uninitialized_copy_aISt13move_iteratorIPN9ObjLoader7Vector3EES3_S2_ET0_T_S6_S5_RSaIT1_E>
  4070ad:	48 83 c4 28          	add    $0x28,%rsp
  4070b1:	5b                   	pop    %rbx
  4070b2:	5d                   	pop    %rbp
  4070b3:	c3                   	retq   

00000000004070b4 <_ZNSt16allocator_traitsISaIN9ObjLoader7Vector3EEE7destroyIS1_EEvRS2_PT_>:
  4070b4:	55                   	push   %rbp
  4070b5:	48 89 e5             	mov    %rsp,%rbp
  4070b8:	48 83 ec 10          	sub    $0x10,%rsp
  4070bc:	48 89 7d f8          	mov    %rdi,-0x8(%rbp)
  4070c0:	48 89 75 f0          	mov    %rsi,-0x10(%rbp)
  4070c4:	48 8b 55 f0          	mov    -0x10(%rbp),%rdx
  4070c8:	48 8b 45 f8          	mov    -0x8(%rbp),%rax
  4070cc:	48 89 d6             	mov    %rdx,%rsi
  4070cf:	48 89 c7             	mov    %rax,%rdi
  4070d2:	e8 ad 07 00 00       	callq  407884 <_ZN9__gnu_cxx13new_allocatorIN9ObjLoader7Vector3EE7destroyIS2_EEvPT_>
  4070d7:	90                   	nop
  4070d8:	c9                   	leaveq 
  4070d9:	c3                   	retq   

00000000004070da <_ZNSt12_Vector_baseIN9ObjLoader13VertexIndicesESaIS1_EE12_Vector_implC1Ev>:
  4070da:	55                   	push   %rbp
  4070db:	48 89 e5             	mov    %rsp,%rbp
  4070de:	48 83 ec 10          	sub    $0x10,%rsp
  4070e2:	48 89 7d f8          	mov    %rdi,-0x8(%rbp)
  4070e6:	48 8b 45 f8          	mov    -0x8(%rbp),%rax
  4070ea:	48 89 c7             	mov    %rax,%rdi
  4070ed:	e8 a2 07 00 00       	callq  407894 <_ZNSaIN9ObjLoader13VertexIndicesEEC1Ev>
  4070f2:	48 8b 45 f8          	mov    -0x8(%rbp),%rax
  4070f6:	48 c7 00 00 00 00 00 	movq   $0x0,(%rax)
  4070fd:	48 8b 45 f8          	mov    -0x8(%rbp),%rax
  407101:	48 c7 40 08 00 00 00 	movq   $0x0,0x8(%rax)
  407108:	00 
  407109:	48 8b 45 f8          	mov    -0x8(%rbp),%rax
  40710d:	48 c7 40 10 00 00 00 	movq   $0x0,0x10(%rax)
  407114:	00 
  407115:	90                   	nop
  407116:	c9                   	leaveq 
  407117:	c3                   	retq   

0000000000407118 <_ZNSaIN9ObjLoader13VertexIndicesEED1Ev>:
  407118:	55                   	push   %rbp
